ARM GAS  C:\Users\tardi\AppData\Local\Temp\ccIz4Bbo.s 			page 1


   1              		.syntax unified
   2              		.cpu cortex-m3
   3              		.fpu softvfp
   4              		.eabi_attribute 20, 1
   5              		.eabi_attribute 21, 1
   6              		.eabi_attribute 23, 3
   7              		.eabi_attribute 24, 1
   8              		.eabi_attribute 25, 1
   9              		.eabi_attribute 26, 1
  10              		.eabi_attribute 30, 1
  11              		.eabi_attribute 34, 1
  12              		.eabi_attribute 18, 4
  13              		.thumb
  14              		.syntax unified
  15              		.file	"cyfitter_cfg.c"
  16              		.text
  17              	.Ltext0:
  18              		.cfi_sections	.debug_frame
  19              		.section	.text.cfg_write_bytes32,"ax",%progbits
  20              		.align	2
  21              		.thumb
  22              		.thumb_func
  23              		.type	cfg_write_bytes32, %function
  24              	cfg_write_bytes32:
  25              	.LFB3:
  26              		.file 1 "Generated_Source\\PSoC5\\cyfitter_cfg.c"
   1:Generated_Source\PSoC5/cyfitter_cfg.c **** 
   2:Generated_Source\PSoC5/cyfitter_cfg.c **** /*******************************************************************************
   3:Generated_Source\PSoC5/cyfitter_cfg.c **** * File Name: cyfitter_cfg.c
   4:Generated_Source\PSoC5/cyfitter_cfg.c **** * 
   5:Generated_Source\PSoC5/cyfitter_cfg.c **** * PSoC Creator  4.4
   6:Generated_Source\PSoC5/cyfitter_cfg.c **** *
   7:Generated_Source\PSoC5/cyfitter_cfg.c **** * Description:
   8:Generated_Source\PSoC5/cyfitter_cfg.c **** * This file contains device initialization code.
   9:Generated_Source\PSoC5/cyfitter_cfg.c **** * Except for the user defined sections in CyClockStartupError(), this file should not be modified.
  10:Generated_Source\PSoC5/cyfitter_cfg.c **** * This file is automatically generated by PSoC Creator.
  11:Generated_Source\PSoC5/cyfitter_cfg.c **** *
  12:Generated_Source\PSoC5/cyfitter_cfg.c **** ********************************************************************************
  13:Generated_Source\PSoC5/cyfitter_cfg.c **** * Copyright (c) 2007-2020 Cypress Semiconductor.  All rights reserved.
  14:Generated_Source\PSoC5/cyfitter_cfg.c **** * You may use this file only in accordance with the license, terms, conditions, 
  15:Generated_Source\PSoC5/cyfitter_cfg.c **** * disclaimers, and limitations in the end user license agreement accompanying 
  16:Generated_Source\PSoC5/cyfitter_cfg.c **** * the software package with which this file was provided.
  17:Generated_Source\PSoC5/cyfitter_cfg.c **** ********************************************************************************/
  18:Generated_Source\PSoC5/cyfitter_cfg.c **** 
  19:Generated_Source\PSoC5/cyfitter_cfg.c **** #include <string.h>
  20:Generated_Source\PSoC5/cyfitter_cfg.c **** #include "cytypes.h"
  21:Generated_Source\PSoC5/cyfitter_cfg.c **** #include "cydevice_trm.h"
  22:Generated_Source\PSoC5/cyfitter_cfg.c **** #include "cyfitter.h"
  23:Generated_Source\PSoC5/cyfitter_cfg.c **** #include "CyLib.h"
  24:Generated_Source\PSoC5/cyfitter_cfg.c **** #include "cyfitter_cfg.h"
  25:Generated_Source\PSoC5/cyfitter_cfg.c **** #include "cyapicallbacks.h"
  26:Generated_Source\PSoC5/cyfitter_cfg.c **** 
  27:Generated_Source\PSoC5/cyfitter_cfg.c **** 
  28:Generated_Source\PSoC5/cyfitter_cfg.c **** #if defined(__GNUC__) || defined(__ARMCC_VERSION)
  29:Generated_Source\PSoC5/cyfitter_cfg.c ****     #define CYPACKED 
  30:Generated_Source\PSoC5/cyfitter_cfg.c ****     #define CYPACKED_ATTR __attribute__ ((packed))
  31:Generated_Source\PSoC5/cyfitter_cfg.c ****     #define CYALIGNED __attribute__ ((aligned))
ARM GAS  C:\Users\tardi\AppData\Local\Temp\ccIz4Bbo.s 			page 2


  32:Generated_Source\PSoC5/cyfitter_cfg.c ****     #define CY_CFG_UNUSED __attribute__ ((unused))
  33:Generated_Source\PSoC5/cyfitter_cfg.c ****     #ifndef CY_CFG_SECTION
  34:Generated_Source\PSoC5/cyfitter_cfg.c ****         #define CY_CFG_SECTION __attribute__ ((section(".psocinit")))
  35:Generated_Source\PSoC5/cyfitter_cfg.c ****     #endif
  36:Generated_Source\PSoC5/cyfitter_cfg.c ****     
  37:Generated_Source\PSoC5/cyfitter_cfg.c ****     #if defined(__ARMCC_VERSION)
  38:Generated_Source\PSoC5/cyfitter_cfg.c ****         #define CY_CFG_MEMORY_BARRIER() __memory_changed()
  39:Generated_Source\PSoC5/cyfitter_cfg.c ****     #else
  40:Generated_Source\PSoC5/cyfitter_cfg.c ****         #define CY_CFG_MEMORY_BARRIER() __sync_synchronize()
  41:Generated_Source\PSoC5/cyfitter_cfg.c ****     #endif
  42:Generated_Source\PSoC5/cyfitter_cfg.c ****     
  43:Generated_Source\PSoC5/cyfitter_cfg.c **** #elif defined(__ICCARM__)
  44:Generated_Source\PSoC5/cyfitter_cfg.c ****     #include <intrinsics.h>
  45:Generated_Source\PSoC5/cyfitter_cfg.c **** 
  46:Generated_Source\PSoC5/cyfitter_cfg.c ****     #define CYPACKED __packed
  47:Generated_Source\PSoC5/cyfitter_cfg.c ****     #define CYPACKED_ATTR 
  48:Generated_Source\PSoC5/cyfitter_cfg.c ****     #define CYALIGNED _Pragma("data_alignment=4")
  49:Generated_Source\PSoC5/cyfitter_cfg.c ****     #define CY_CFG_UNUSED _Pragma("diag_suppress=Pe177")
  50:Generated_Source\PSoC5/cyfitter_cfg.c ****     #define CY_CFG_SECTION _Pragma("location=\".psocinit\"")
  51:Generated_Source\PSoC5/cyfitter_cfg.c ****     
  52:Generated_Source\PSoC5/cyfitter_cfg.c ****     #define CY_CFG_MEMORY_BARRIER() __DMB()
  53:Generated_Source\PSoC5/cyfitter_cfg.c ****     
  54:Generated_Source\PSoC5/cyfitter_cfg.c **** #else
  55:Generated_Source\PSoC5/cyfitter_cfg.c ****     #error Unsupported toolchain
  56:Generated_Source\PSoC5/cyfitter_cfg.c **** #endif
  57:Generated_Source\PSoC5/cyfitter_cfg.c **** 
  58:Generated_Source\PSoC5/cyfitter_cfg.c **** #ifndef CYCODE
  59:Generated_Source\PSoC5/cyfitter_cfg.c ****     #define CYCODE
  60:Generated_Source\PSoC5/cyfitter_cfg.c **** #endif
  61:Generated_Source\PSoC5/cyfitter_cfg.c **** #ifndef CYDATA
  62:Generated_Source\PSoC5/cyfitter_cfg.c ****     #define CYDATA
  63:Generated_Source\PSoC5/cyfitter_cfg.c **** #endif
  64:Generated_Source\PSoC5/cyfitter_cfg.c **** #ifndef CYFAR
  65:Generated_Source\PSoC5/cyfitter_cfg.c ****     #define CYFAR
  66:Generated_Source\PSoC5/cyfitter_cfg.c **** #endif
  67:Generated_Source\PSoC5/cyfitter_cfg.c **** #ifndef CYXDATA
  68:Generated_Source\PSoC5/cyfitter_cfg.c ****     #define CYXDATA
  69:Generated_Source\PSoC5/cyfitter_cfg.c **** #endif
  70:Generated_Source\PSoC5/cyfitter_cfg.c **** 
  71:Generated_Source\PSoC5/cyfitter_cfg.c **** 
  72:Generated_Source\PSoC5/cyfitter_cfg.c **** CY_CFG_UNUSED
  73:Generated_Source\PSoC5/cyfitter_cfg.c **** static void CYMEMZERO(void *s, size_t n);
  74:Generated_Source\PSoC5/cyfitter_cfg.c **** CY_CFG_UNUSED
  75:Generated_Source\PSoC5/cyfitter_cfg.c **** static void CYMEMZERO(void *s, size_t n)
  76:Generated_Source\PSoC5/cyfitter_cfg.c **** {
  77:Generated_Source\PSoC5/cyfitter_cfg.c **** 	(void)memset(s, 0, n);
  78:Generated_Source\PSoC5/cyfitter_cfg.c **** }
  79:Generated_Source\PSoC5/cyfitter_cfg.c **** CY_CFG_UNUSED
  80:Generated_Source\PSoC5/cyfitter_cfg.c **** static void CYCONFIGCPY(void *dest, const void *src, size_t n);
  81:Generated_Source\PSoC5/cyfitter_cfg.c **** CY_CFG_UNUSED
  82:Generated_Source\PSoC5/cyfitter_cfg.c **** static void CYCONFIGCPY(void *dest, const void *src, size_t n)
  83:Generated_Source\PSoC5/cyfitter_cfg.c **** {
  84:Generated_Source\PSoC5/cyfitter_cfg.c **** 	(void)memcpy(dest, src, n);
  85:Generated_Source\PSoC5/cyfitter_cfg.c **** }
  86:Generated_Source\PSoC5/cyfitter_cfg.c **** CY_CFG_UNUSED
  87:Generated_Source\PSoC5/cyfitter_cfg.c **** static void CYCONFIGCPYCODE(void *dest, const void *src, size_t n);
  88:Generated_Source\PSoC5/cyfitter_cfg.c **** CY_CFG_UNUSED
ARM GAS  C:\Users\tardi\AppData\Local\Temp\ccIz4Bbo.s 			page 3


  89:Generated_Source\PSoC5/cyfitter_cfg.c **** static void CYCONFIGCPYCODE(void *dest, const void *src, size_t n)
  90:Generated_Source\PSoC5/cyfitter_cfg.c **** {
  91:Generated_Source\PSoC5/cyfitter_cfg.c **** 	(void)memcpy(dest, src, n);
  92:Generated_Source\PSoC5/cyfitter_cfg.c **** }
  93:Generated_Source\PSoC5/cyfitter_cfg.c **** 
  94:Generated_Source\PSoC5/cyfitter_cfg.c **** 
  95:Generated_Source\PSoC5/cyfitter_cfg.c **** 
  96:Generated_Source\PSoC5/cyfitter_cfg.c **** 
  97:Generated_Source\PSoC5/cyfitter_cfg.c **** /* Clock startup error codes                                                   */
  98:Generated_Source\PSoC5/cyfitter_cfg.c **** #define CYCLOCKSTART_NO_ERROR    0u
  99:Generated_Source\PSoC5/cyfitter_cfg.c **** #define CYCLOCKSTART_XTAL_ERROR  1u
 100:Generated_Source\PSoC5/cyfitter_cfg.c **** #define CYCLOCKSTART_32KHZ_ERROR 2u
 101:Generated_Source\PSoC5/cyfitter_cfg.c **** #define CYCLOCKSTART_PLL_ERROR   3u
 102:Generated_Source\PSoC5/cyfitter_cfg.c **** #define CYCLOCKSTART_FLL_ERROR   4u
 103:Generated_Source\PSoC5/cyfitter_cfg.c **** #define CYCLOCKSTART_WCO_ERROR   5u
 104:Generated_Source\PSoC5/cyfitter_cfg.c **** 
 105:Generated_Source\PSoC5/cyfitter_cfg.c **** 
 106:Generated_Source\PSoC5/cyfitter_cfg.c **** #ifdef CY_NEED_CYCLOCKSTARTUPERROR
 107:Generated_Source\PSoC5/cyfitter_cfg.c **** /*******************************************************************************
 108:Generated_Source\PSoC5/cyfitter_cfg.c **** * Function Name: CyClockStartupError
 109:Generated_Source\PSoC5/cyfitter_cfg.c **** ********************************************************************************
 110:Generated_Source\PSoC5/cyfitter_cfg.c **** * Summary:
 111:Generated_Source\PSoC5/cyfitter_cfg.c **** *  If an error is encountered during clock configuration (crystal startup error,
 112:Generated_Source\PSoC5/cyfitter_cfg.c **** *  PLL lock error, etc.), the system will end up here.  Unless reimplemented by
 113:Generated_Source\PSoC5/cyfitter_cfg.c **** *  the customer, this function will stop in an infinite loop.
 114:Generated_Source\PSoC5/cyfitter_cfg.c **** *
 115:Generated_Source\PSoC5/cyfitter_cfg.c **** * Parameters:
 116:Generated_Source\PSoC5/cyfitter_cfg.c **** *   void
 117:Generated_Source\PSoC5/cyfitter_cfg.c **** *
 118:Generated_Source\PSoC5/cyfitter_cfg.c **** * Return:
 119:Generated_Source\PSoC5/cyfitter_cfg.c **** *   void
 120:Generated_Source\PSoC5/cyfitter_cfg.c **** *
 121:Generated_Source\PSoC5/cyfitter_cfg.c **** *******************************************************************************/
 122:Generated_Source\PSoC5/cyfitter_cfg.c **** CY_CFG_UNUSED
 123:Generated_Source\PSoC5/cyfitter_cfg.c **** static void CyClockStartupError(uint8 errorCode);
 124:Generated_Source\PSoC5/cyfitter_cfg.c **** CY_CFG_UNUSED
 125:Generated_Source\PSoC5/cyfitter_cfg.c **** static void CyClockStartupError(uint8 errorCode)
 126:Generated_Source\PSoC5/cyfitter_cfg.c **** {
 127:Generated_Source\PSoC5/cyfitter_cfg.c ****     /* To remove the compiler warning if errorCode not used.                */
 128:Generated_Source\PSoC5/cyfitter_cfg.c ****     errorCode = errorCode;
 129:Generated_Source\PSoC5/cyfitter_cfg.c **** 
 130:Generated_Source\PSoC5/cyfitter_cfg.c ****     /* If we have a clock startup error (bad MHz crystal, PLL lock, etc.),  */
 131:Generated_Source\PSoC5/cyfitter_cfg.c ****     /* we will end up here to allow the customer to implement something to  */
 132:Generated_Source\PSoC5/cyfitter_cfg.c ****     /* deal with the clock condition.                                       */
 133:Generated_Source\PSoC5/cyfitter_cfg.c **** 
 134:Generated_Source\PSoC5/cyfitter_cfg.c **** #ifdef CY_CFG_CLOCK_STARTUP_ERROR_CALLBACK
 135:Generated_Source\PSoC5/cyfitter_cfg.c ****     CY_CFG_Clock_Startup_ErrorCallback();
 136:Generated_Source\PSoC5/cyfitter_cfg.c **** #else
 137:Generated_Source\PSoC5/cyfitter_cfg.c ****     /*  If not using CY_CFG_CLOCK_STARTUP_ERROR_CALLBACK, place your clock startup code here. */
 138:Generated_Source\PSoC5/cyfitter_cfg.c ****     /* `#START CyClockStartupError` */
 139:Generated_Source\PSoC5/cyfitter_cfg.c **** 
 140:Generated_Source\PSoC5/cyfitter_cfg.c **** 
 141:Generated_Source\PSoC5/cyfitter_cfg.c **** 
 142:Generated_Source\PSoC5/cyfitter_cfg.c ****     /* `#END` */
 143:Generated_Source\PSoC5/cyfitter_cfg.c **** 
 144:Generated_Source\PSoC5/cyfitter_cfg.c ****     while(1) {}
 145:Generated_Source\PSoC5/cyfitter_cfg.c **** #endif /* CY_CFG_CLOCK_STARTUP_ERROR_CALLBACK */
ARM GAS  C:\Users\tardi\AppData\Local\Temp\ccIz4Bbo.s 			page 4


 146:Generated_Source\PSoC5/cyfitter_cfg.c **** }
 147:Generated_Source\PSoC5/cyfitter_cfg.c **** #endif
 148:Generated_Source\PSoC5/cyfitter_cfg.c **** 
 149:Generated_Source\PSoC5/cyfitter_cfg.c **** #define CY_CFG_BASE_ADDR_COUNT 40u
 150:Generated_Source\PSoC5/cyfitter_cfg.c **** CYPACKED typedef struct
 151:Generated_Source\PSoC5/cyfitter_cfg.c **** {
 152:Generated_Source\PSoC5/cyfitter_cfg.c **** 	uint8 offset;
 153:Generated_Source\PSoC5/cyfitter_cfg.c **** 	uint8 value;
 154:Generated_Source\PSoC5/cyfitter_cfg.c **** } CYPACKED_ATTR cy_cfg_addrvalue_t;
 155:Generated_Source\PSoC5/cyfitter_cfg.c **** 
 156:Generated_Source\PSoC5/cyfitter_cfg.c **** #define cy_cfg_addr_table ((const uint32 CYFAR *)0x48000000u)
 157:Generated_Source\PSoC5/cyfitter_cfg.c **** #define cy_cfg_data_table ((const cy_cfg_addrvalue_t CYFAR *)0x480000A0u)
 158:Generated_Source\PSoC5/cyfitter_cfg.c **** 
 159:Generated_Source\PSoC5/cyfitter_cfg.c **** /* IDMUX Address: CYREG_IDMUX_DRQ_CTL0 Size (bytes): 6 */
 160:Generated_Source\PSoC5/cyfitter_cfg.c **** #define BS_IDMUX_VAL ((const uint8 CYFAR *)0x48000D58u)
 161:Generated_Source\PSoC5/cyfitter_cfg.c **** 
 162:Generated_Source\PSoC5/cyfitter_cfg.c **** /* UDB_1_4_0_CONFIG Address: CYDEV_UCFG_B0_P1_U1_BASE Size (bytes): 128 */
 163:Generated_Source\PSoC5/cyfitter_cfg.c **** #define BS_UDB_1_4_0_CONFIG_VAL ((const uint8 CYFAR *)0x48000D60u)
 164:Generated_Source\PSoC5/cyfitter_cfg.c **** 
 165:Generated_Source\PSoC5/cyfitter_cfg.c **** /* UDB_1_2_0_CONFIG Address: CYDEV_UCFG_B0_P3_U1_BASE Size (bytes): 128 */
 166:Generated_Source\PSoC5/cyfitter_cfg.c **** #define BS_UDB_1_2_0_CONFIG_VAL ((const uint8 CYFAR *)0x48000DE0u)
 167:Generated_Source\PSoC5/cyfitter_cfg.c **** 
 168:Generated_Source\PSoC5/cyfitter_cfg.c **** /* UDB_0_3_1_CONFIG Address: CYDEV_UCFG_B0_P5_U1_BASE Size (bytes): 128 */
 169:Generated_Source\PSoC5/cyfitter_cfg.c **** #define BS_UDB_0_3_1_CONFIG_VAL ((const uint8 CYFAR *)0x48000E60u)
 170:Generated_Source\PSoC5/cyfitter_cfg.c **** 
 171:Generated_Source\PSoC5/cyfitter_cfg.c **** /* UDB_0_5_0_CONFIG Address: CYDEV_UCFG_B0_P7_U0_BASE Size (bytes): 128 */
 172:Generated_Source\PSoC5/cyfitter_cfg.c **** #define BS_UDB_0_5_0_CONFIG_VAL ((const uint8 CYFAR *)0x48000EE0u)
 173:Generated_Source\PSoC5/cyfitter_cfg.c **** 
 174:Generated_Source\PSoC5/cyfitter_cfg.c **** /* UDB_1_0_1_CONFIG Address: CYDEV_UCFG_B1_P2_U1_BASE Size (bytes): 128 */
 175:Generated_Source\PSoC5/cyfitter_cfg.c **** #define BS_UDB_1_0_1_CONFIG_VAL ((const uint8 CYFAR *)0x48000F60u)
 176:Generated_Source\PSoC5/cyfitter_cfg.c **** 
 177:Generated_Source\PSoC5/cyfitter_cfg.c **** /* UDB_1_1_0_CONFIG Address: CYDEV_UCFG_B1_P3_U1_BASE Size (bytes): 128 */
 178:Generated_Source\PSoC5/cyfitter_cfg.c **** #define BS_UDB_1_1_0_CONFIG_VAL ((const uint8 CYFAR *)0x48000FE0u)
 179:Generated_Source\PSoC5/cyfitter_cfg.c **** 
 180:Generated_Source\PSoC5/cyfitter_cfg.c **** /* UDB_0_1_0_CONFIG Address: CYDEV_UCFG_B1_P4_U1_BASE Size (bytes): 128 */
 181:Generated_Source\PSoC5/cyfitter_cfg.c **** #define BS_UDB_0_1_0_CONFIG_VAL ((const uint8 CYFAR *)0x48001060u)
 182:Generated_Source\PSoC5/cyfitter_cfg.c **** 
 183:Generated_Source\PSoC5/cyfitter_cfg.c **** /* IOPINS0_0 Address: CYREG_PRT0_DR Size (bytes): 10 */
 184:Generated_Source\PSoC5/cyfitter_cfg.c **** #define BS_IOPINS0_0_VAL ((const uint8 CYFAR *)0x480010E0u)
 185:Generated_Source\PSoC5/cyfitter_cfg.c **** 
 186:Generated_Source\PSoC5/cyfitter_cfg.c **** /* IOPINS0_7 Address: CYREG_PRT12_DR Size (bytes): 10 */
 187:Generated_Source\PSoC5/cyfitter_cfg.c **** #define BS_IOPINS0_7_VAL ((const uint8 CYFAR *)0x480010ECu)
 188:Generated_Source\PSoC5/cyfitter_cfg.c **** 
 189:Generated_Source\PSoC5/cyfitter_cfg.c **** /* IOPINS0_8 Address: CYREG_PRT15_DR Size (bytes): 10 */
 190:Generated_Source\PSoC5/cyfitter_cfg.c **** #define BS_IOPINS0_8_VAL ((const uint8 CYFAR *)0x480010F8u)
 191:Generated_Source\PSoC5/cyfitter_cfg.c **** 
 192:Generated_Source\PSoC5/cyfitter_cfg.c **** /* IOPINS0_1 Address: CYREG_PRT1_DR Size (bytes): 10 */
 193:Generated_Source\PSoC5/cyfitter_cfg.c **** #define BS_IOPINS0_1_VAL ((const uint8 CYFAR *)0x48001104u)
 194:Generated_Source\PSoC5/cyfitter_cfg.c **** 
 195:Generated_Source\PSoC5/cyfitter_cfg.c **** /* IOPINS0_2 Address: CYREG_PRT2_DM0 Size (bytes): 8 */
 196:Generated_Source\PSoC5/cyfitter_cfg.c **** #define BS_IOPINS0_2_VAL ((const uint8 CYFAR *)0x48001110u)
 197:Generated_Source\PSoC5/cyfitter_cfg.c **** 
 198:Generated_Source\PSoC5/cyfitter_cfg.c **** /* IOPINS0_3 Address: CYREG_PRT3_DR Size (bytes): 10 */
 199:Generated_Source\PSoC5/cyfitter_cfg.c **** #define BS_IOPINS0_3_VAL ((const uint8 CYFAR *)0x48001118u)
 200:Generated_Source\PSoC5/cyfitter_cfg.c **** 
 201:Generated_Source\PSoC5/cyfitter_cfg.c **** /* PHUB_CFGMEM1 Address: CYREG_PHUB_CFGMEM1_CFG0 Size (bytes): 4 */
 202:Generated_Source\PSoC5/cyfitter_cfg.c **** #define BS_PHUB_CFGMEM1_VAL ((const uint8 CYFAR *)0x48001124u)
ARM GAS  C:\Users\tardi\AppData\Local\Temp\ccIz4Bbo.s 			page 5


 203:Generated_Source\PSoC5/cyfitter_cfg.c **** 
 204:Generated_Source\PSoC5/cyfitter_cfg.c **** /* PHUB_CFGMEM2 Address: CYREG_PHUB_CFGMEM2_CFG0 Size (bytes): 4 */
 205:Generated_Source\PSoC5/cyfitter_cfg.c **** #define BS_PHUB_CFGMEM2_VAL ((const uint8 CYFAR *)0x48001128u)
 206:Generated_Source\PSoC5/cyfitter_cfg.c **** 
 207:Generated_Source\PSoC5/cyfitter_cfg.c **** /* PHUB_CFGMEM3 Address: CYREG_PHUB_CFGMEM3_CFG0 Size (bytes): 4 */
 208:Generated_Source\PSoC5/cyfitter_cfg.c **** #define BS_PHUB_CFGMEM3_VAL ((const uint8 CYFAR *)0x4800112Cu)
 209:Generated_Source\PSoC5/cyfitter_cfg.c **** 
 210:Generated_Source\PSoC5/cyfitter_cfg.c **** /* PHUB_CFGMEM4 Address: CYREG_PHUB_CFGMEM4_CFG0 Size (bytes): 4 */
 211:Generated_Source\PSoC5/cyfitter_cfg.c **** #define BS_PHUB_CFGMEM4_VAL ((const uint8 CYFAR *)0x48001130u)
 212:Generated_Source\PSoC5/cyfitter_cfg.c **** 
 213:Generated_Source\PSoC5/cyfitter_cfg.c **** /* PHUB_CFGMEM5 Address: CYREG_PHUB_CFGMEM5_CFG0 Size (bytes): 4 */
 214:Generated_Source\PSoC5/cyfitter_cfg.c **** #define BS_PHUB_CFGMEM5_VAL ((const uint8 CYFAR *)0x48001134u)
 215:Generated_Source\PSoC5/cyfitter_cfg.c **** 
 216:Generated_Source\PSoC5/cyfitter_cfg.c **** /* PHUB_CFGMEM6 Address: CYREG_PHUB_CFGMEM6_CFG0 Size (bytes): 4 */
 217:Generated_Source\PSoC5/cyfitter_cfg.c **** #define BS_PHUB_CFGMEM6_VAL ((const uint8 CYFAR *)0x48001138u)
 218:Generated_Source\PSoC5/cyfitter_cfg.c **** 
 219:Generated_Source\PSoC5/cyfitter_cfg.c **** /* PHUB_CFGMEM7 Address: CYREG_PHUB_CFGMEM7_CFG0 Size (bytes): 4 */
 220:Generated_Source\PSoC5/cyfitter_cfg.c **** #define BS_PHUB_CFGMEM7_VAL ((const uint8 CYFAR *)0x4800113Cu)
 221:Generated_Source\PSoC5/cyfitter_cfg.c **** 
 222:Generated_Source\PSoC5/cyfitter_cfg.c **** 
 223:Generated_Source\PSoC5/cyfitter_cfg.c **** /*******************************************************************************
 224:Generated_Source\PSoC5/cyfitter_cfg.c **** * Function Name: cfg_write_bytes32
 225:Generated_Source\PSoC5/cyfitter_cfg.c **** ********************************************************************************
 226:Generated_Source\PSoC5/cyfitter_cfg.c **** * Summary:
 227:Generated_Source\PSoC5/cyfitter_cfg.c **** *  This function is used for setting up the chip configuration areas that
 228:Generated_Source\PSoC5/cyfitter_cfg.c **** *  contain relatively sparse data.
 229:Generated_Source\PSoC5/cyfitter_cfg.c **** *
 230:Generated_Source\PSoC5/cyfitter_cfg.c **** * Parameters:
 231:Generated_Source\PSoC5/cyfitter_cfg.c **** *   void
 232:Generated_Source\PSoC5/cyfitter_cfg.c **** *
 233:Generated_Source\PSoC5/cyfitter_cfg.c **** * Return:
 234:Generated_Source\PSoC5/cyfitter_cfg.c **** *   void
 235:Generated_Source\PSoC5/cyfitter_cfg.c **** *
 236:Generated_Source\PSoC5/cyfitter_cfg.c **** *******************************************************************************/
 237:Generated_Source\PSoC5/cyfitter_cfg.c **** static void cfg_write_bytes32(const uint32 addr_table[], const cy_cfg_addrvalue_t data_table[]);
 238:Generated_Source\PSoC5/cyfitter_cfg.c **** static void cfg_write_bytes32(const uint32 addr_table[], const cy_cfg_addrvalue_t data_table[])
 239:Generated_Source\PSoC5/cyfitter_cfg.c **** {
  27              		.loc 1 239 0
  28              		.cfi_startproc
  29              		@ args = 0, pretend = 0, frame = 0
  30              		@ frame_needed = 0, uses_anonymous_args = 0
  31              		@ link register save eliminated.
  32              	.LVL0:
  33 0000 F0B4     		push	{r4, r5, r6, r7}
  34              		.cfi_def_cfa_offset 16
  35              		.cfi_offset 4, -16
  36              		.cfi_offset 5, -12
  37              		.cfi_offset 6, -8
  38              		.cfi_offset 7, -4
  39              	.LVL1:
 240:Generated_Source\PSoC5/cyfitter_cfg.c **** 	/* For 32-bit little-endian architectures */
 241:Generated_Source\PSoC5/cyfitter_cfg.c **** 	uint32 i, j = 0u;
  40              		.loc 1 241 0
  41 0002 0022     		movs	r2, #0
 242:Generated_Source\PSoC5/cyfitter_cfg.c **** 	for (i = 0u; i < CY_CFG_BASE_ADDR_COUNT; i++)
  42              		.loc 1 242 0
  43 0004 1746     		mov	r7, r2
ARM GAS  C:\Users\tardi\AppData\Local\Temp\ccIz4Bbo.s 			page 6


  44 0006 11E0     		b	.L2
  45              	.LVL2:
  46              	.L5:
  47              	.LBB2:
 243:Generated_Source\PSoC5/cyfitter_cfg.c **** 	{
 244:Generated_Source\PSoC5/cyfitter_cfg.c **** 		uint32 baseAddr = addr_table[i];
  48              		.loc 1 244 0
  49 0008 50F82760 		ldr	r6, [r0, r7, lsl #2]
  50              	.LVL3:
 245:Generated_Source\PSoC5/cyfitter_cfg.c **** 		uint8 count = (uint8)baseAddr;
  51              		.loc 1 245 0
  52 000c F3B2     		uxtb	r3, r6
  53              	.LVL4:
 246:Generated_Source\PSoC5/cyfitter_cfg.c **** 		baseAddr &= 0xFFFFFF00u;
  54              		.loc 1 246 0
  55 000e 26F0FF06 		bic	r6, r6, #255
  56              	.LVL5:
 247:Generated_Source\PSoC5/cyfitter_cfg.c **** 		while (count != 0u)
  57              		.loc 1 247 0
  58 0012 08E0     		b	.L3
  59              	.L4:
 248:Generated_Source\PSoC5/cyfitter_cfg.c **** 		{
 249:Generated_Source\PSoC5/cyfitter_cfg.c **** 			CY_SET_REG8((void *)(baseAddr + data_table[j].offset), data_table[j].value);
  60              		.loc 1 249 0
  61 0014 01EB4205 		add	r5, r1, r2, lsl #1
  62 0018 11F81240 		ldrb	r4, [r1, r2, lsl #1]	@ zero_extendqisi2
  63 001c 6D78     		ldrb	r5, [r5, #1]	@ zero_extendqisi2
  64 001e A555     		strb	r5, [r4, r6]
 250:Generated_Source\PSoC5/cyfitter_cfg.c **** 			j++;
  65              		.loc 1 250 0
  66 0020 0132     		adds	r2, r2, #1
  67              	.LVL6:
 251:Generated_Source\PSoC5/cyfitter_cfg.c **** 			count--;
  68              		.loc 1 251 0
  69 0022 013B     		subs	r3, r3, #1
  70              	.LVL7:
  71 0024 DBB2     		uxtb	r3, r3
  72              	.LVL8:
  73              	.L3:
 247:Generated_Source\PSoC5/cyfitter_cfg.c **** 		{
  74              		.loc 1 247 0
  75 0026 002B     		cmp	r3, #0
  76 0028 F4D1     		bne	.L4
  77              	.LBE2:
 242:Generated_Source\PSoC5/cyfitter_cfg.c **** 	{
  78              		.loc 1 242 0 discriminator 2
  79 002a 0137     		adds	r7, r7, #1
  80              	.LVL9:
  81              	.L2:
 242:Generated_Source\PSoC5/cyfitter_cfg.c **** 	{
  82              		.loc 1 242 0 is_stmt 0 discriminator 1
  83 002c 272F     		cmp	r7, #39
  84 002e EBD9     		bls	.L5
 252:Generated_Source\PSoC5/cyfitter_cfg.c **** 		}
 253:Generated_Source\PSoC5/cyfitter_cfg.c **** 	}
 254:Generated_Source\PSoC5/cyfitter_cfg.c **** }
  85              		.loc 1 254 0 is_stmt 1
ARM GAS  C:\Users\tardi\AppData\Local\Temp\ccIz4Bbo.s 			page 7


  86 0030 F0BC     		pop	{r4, r5, r6, r7}
  87              		.cfi_restore 7
  88              		.cfi_restore 6
  89              		.cfi_restore 5
  90              		.cfi_restore 4
  91              		.cfi_def_cfa_offset 0
  92              	.LVL10:
  93 0032 7047     		bx	lr
  94              		.cfi_endproc
  95              	.LFE3:
  96              		.size	cfg_write_bytes32, .-cfg_write_bytes32
  97              		.section	.text.AnalogSetDefault,"ax",%progbits
  98              		.align	2
  99              		.thumb
 100              		.thumb_func
 101              		.type	AnalogSetDefault, %function
 102              	AnalogSetDefault:
 103              	.LFB5:
 255:Generated_Source\PSoC5/cyfitter_cfg.c **** 
 256:Generated_Source\PSoC5/cyfitter_cfg.c **** /*******************************************************************************
 257:Generated_Source\PSoC5/cyfitter_cfg.c **** * Function Name: ClockSetup
 258:Generated_Source\PSoC5/cyfitter_cfg.c **** ********************************************************************************
 259:Generated_Source\PSoC5/cyfitter_cfg.c **** *
 260:Generated_Source\PSoC5/cyfitter_cfg.c **** * Summary:
 261:Generated_Source\PSoC5/cyfitter_cfg.c **** *  Performs the initialization of all of the clocks in the device based on the
 262:Generated_Source\PSoC5/cyfitter_cfg.c **** *  settings in the Clock tab of the DWR.  This includes enabling the requested
 263:Generated_Source\PSoC5/cyfitter_cfg.c **** *  clocks and setting the necessary dividers to produce the desired frequency. 
 264:Generated_Source\PSoC5/cyfitter_cfg.c **** *
 265:Generated_Source\PSoC5/cyfitter_cfg.c **** * Parameters:
 266:Generated_Source\PSoC5/cyfitter_cfg.c **** *  void
 267:Generated_Source\PSoC5/cyfitter_cfg.c **** *
 268:Generated_Source\PSoC5/cyfitter_cfg.c **** * Return:
 269:Generated_Source\PSoC5/cyfitter_cfg.c **** *  void
 270:Generated_Source\PSoC5/cyfitter_cfg.c **** *
 271:Generated_Source\PSoC5/cyfitter_cfg.c **** *******************************************************************************/
 272:Generated_Source\PSoC5/cyfitter_cfg.c **** static void ClockSetup(void);
 273:Generated_Source\PSoC5/cyfitter_cfg.c **** static void ClockSetup(void)
 274:Generated_Source\PSoC5/cyfitter_cfg.c **** {
 275:Generated_Source\PSoC5/cyfitter_cfg.c **** 	uint32 timeout;
 276:Generated_Source\PSoC5/cyfitter_cfg.c **** 	uint8 pllLock;
 277:Generated_Source\PSoC5/cyfitter_cfg.c **** 
 278:Generated_Source\PSoC5/cyfitter_cfg.c **** 
 279:Generated_Source\PSoC5/cyfitter_cfg.c **** 	/* Configure Digital Clocks based on settings from Clock DWR */
 280:Generated_Source\PSoC5/cyfitter_cfg.c **** 	CY_SET_XTND_REG16((void CYFAR *)(CYREG_CLKDIST_DCFG0_CFG0), 0x0002u);
 281:Generated_Source\PSoC5/cyfitter_cfg.c **** 	CY_SET_XTND_REG8((void CYFAR *)(CYREG_CLKDIST_DCFG0_CFG0 + 0x2u), 0x18u);
 282:Generated_Source\PSoC5/cyfitter_cfg.c **** 	CY_SET_XTND_REG16((void CYFAR *)(CYREG_CLKDIST_DCFG1_CFG0), 0x0008u);
 283:Generated_Source\PSoC5/cyfitter_cfg.c **** 	CY_SET_XTND_REG8((void CYFAR *)(CYREG_CLKDIST_DCFG1_CFG0 + 0x2u), 0x18u);
 284:Generated_Source\PSoC5/cyfitter_cfg.c **** 
 285:Generated_Source\PSoC5/cyfitter_cfg.c **** 	/* Configure ILO based on settings from Clock DWR */
 286:Generated_Source\PSoC5/cyfitter_cfg.c **** 	CY_SET_XTND_REG8((void CYFAR *)(CYREG_SLOWCLK_ILO_CR0), 0x06u);
 287:Generated_Source\PSoC5/cyfitter_cfg.c **** 
 288:Generated_Source\PSoC5/cyfitter_cfg.c **** 	/* Configure IMO based on settings from Clock DWR */
 289:Generated_Source\PSoC5/cyfitter_cfg.c **** 	CY_SET_XTND_REG8((void CYFAR *)(CYREG_FASTCLK_IMO_CR), 0x04u);
 290:Generated_Source\PSoC5/cyfitter_cfg.c **** 	CY_SET_XTND_REG8((void CYFAR *)(CYREG_IMO_TR1), (CY_GET_XTND_REG8((void CYFAR *)(CYREG_FLSHID_MFG_
 291:Generated_Source\PSoC5/cyfitter_cfg.c **** 
 292:Generated_Source\PSoC5/cyfitter_cfg.c **** 	/* Configure Bus/Master Clock based on settings from Clock DWR */
 293:Generated_Source\PSoC5/cyfitter_cfg.c **** 	CY_SET_XTND_REG16((void CYFAR *)(CYREG_CLKDIST_MSTR0), 0x0000u);
ARM GAS  C:\Users\tardi\AppData\Local\Temp\ccIz4Bbo.s 			page 8


 294:Generated_Source\PSoC5/cyfitter_cfg.c **** 
 295:Generated_Source\PSoC5/cyfitter_cfg.c **** 	/* Configure PLL based on settings from Clock DWR */
 296:Generated_Source\PSoC5/cyfitter_cfg.c **** 	CY_SET_XTND_REG16((void CYFAR *)(CYREG_FASTCLK_PLL_P), 0x0F10u);
 297:Generated_Source\PSoC5/cyfitter_cfg.c **** 	CY_SET_XTND_REG16((void CYFAR *)(CYREG_FASTCLK_PLL_CFG0), 0x1251u);
 298:Generated_Source\PSoC5/cyfitter_cfg.c **** 	/* Wait up to 250us for the PLL to lock */
 299:Generated_Source\PSoC5/cyfitter_cfg.c **** 	pllLock = 0u;
 300:Generated_Source\PSoC5/cyfitter_cfg.c **** 	for (timeout = 250u / 10u; (timeout > 0u) && (pllLock != 0x03u); timeout--)
 301:Generated_Source\PSoC5/cyfitter_cfg.c **** 	{ 
 302:Generated_Source\PSoC5/cyfitter_cfg.c **** 		pllLock = 0x03u & ((uint8)((uint8)pllLock << 1) | ((CY_GET_XTND_REG8((void CYFAR *)CYREG_FASTCLK_
 303:Generated_Source\PSoC5/cyfitter_cfg.c **** 		CyDelayCycles(10u * 48u); /* Delay 10us based on 48MHz clock */
 304:Generated_Source\PSoC5/cyfitter_cfg.c **** 	}
 305:Generated_Source\PSoC5/cyfitter_cfg.c **** 	CY_SET_XTND_REG8((void CYFAR *)(CYREG_CLKDIST_MSTR0), 0x07u);
 306:Generated_Source\PSoC5/cyfitter_cfg.c **** 	CY_SET_XTND_REG8((void CYFAR *)(CYREG_CLKDIST_BCFG0), 0x00u);
 307:Generated_Source\PSoC5/cyfitter_cfg.c **** 	CY_SET_XTND_REG8((void CYFAR *)(CYREG_CLKDIST_BCFG2), 0x48u);
 308:Generated_Source\PSoC5/cyfitter_cfg.c **** 	CY_SET_XTND_REG8((void CYFAR *)(CYREG_CLKDIST_MSTR0), 0x00u);
 309:Generated_Source\PSoC5/cyfitter_cfg.c **** 	CY_SET_XTND_REG8((void CYFAR *)(CYREG_CLKDIST_LD), 0x02u);
 310:Generated_Source\PSoC5/cyfitter_cfg.c **** 
 311:Generated_Source\PSoC5/cyfitter_cfg.c **** 	CY_SET_XTND_REG8((void CYFAR *)(CYREG_PM_ACT_CFG2), ((CY_GET_XTND_REG8((void CYFAR *)CYREG_PM_ACT_
 312:Generated_Source\PSoC5/cyfitter_cfg.c **** }
 313:Generated_Source\PSoC5/cyfitter_cfg.c **** 
 314:Generated_Source\PSoC5/cyfitter_cfg.c **** 
 315:Generated_Source\PSoC5/cyfitter_cfg.c **** /* Analog API Functions */
 316:Generated_Source\PSoC5/cyfitter_cfg.c **** 
 317:Generated_Source\PSoC5/cyfitter_cfg.c **** 
 318:Generated_Source\PSoC5/cyfitter_cfg.c **** /*******************************************************************************
 319:Generated_Source\PSoC5/cyfitter_cfg.c **** * Function Name: AnalogSetDefault
 320:Generated_Source\PSoC5/cyfitter_cfg.c **** ********************************************************************************
 321:Generated_Source\PSoC5/cyfitter_cfg.c **** *
 322:Generated_Source\PSoC5/cyfitter_cfg.c **** * Summary:
 323:Generated_Source\PSoC5/cyfitter_cfg.c **** *  Sets up the analog portions of the chip to default values based on chip
 324:Generated_Source\PSoC5/cyfitter_cfg.c **** *  configuration options from the project.
 325:Generated_Source\PSoC5/cyfitter_cfg.c **** *
 326:Generated_Source\PSoC5/cyfitter_cfg.c **** * Parameters:
 327:Generated_Source\PSoC5/cyfitter_cfg.c **** *  void
 328:Generated_Source\PSoC5/cyfitter_cfg.c **** *
 329:Generated_Source\PSoC5/cyfitter_cfg.c **** * Return:
 330:Generated_Source\PSoC5/cyfitter_cfg.c **** *  void
 331:Generated_Source\PSoC5/cyfitter_cfg.c **** *
 332:Generated_Source\PSoC5/cyfitter_cfg.c **** *******************************************************************************/
 333:Generated_Source\PSoC5/cyfitter_cfg.c **** static void AnalogSetDefault(void);
 334:Generated_Source\PSoC5/cyfitter_cfg.c **** static void AnalogSetDefault(void)
 335:Generated_Source\PSoC5/cyfitter_cfg.c **** {
 104              		.loc 1 335 0
 105              		.cfi_startproc
 106              		@ args = 0, pretend = 0, frame = 0
 107              		@ frame_needed = 0, uses_anonymous_args = 0
 108              		@ link register save eliminated.
 336:Generated_Source\PSoC5/cyfitter_cfg.c **** 	uint8 bg_xover_inl_trim = CY_GET_XTND_REG8((void CYFAR *)(CYREG_FLSHID_MFG_CFG_BG_XOVER_INL_TRIM +
 109              		.loc 1 336 0
 110 0000 064B     		ldr	r3, .L8
 111 0002 1B78     		ldrb	r3, [r3]	@ zero_extendqisi2
 112 0004 DBB2     		uxtb	r3, r3
 113              	.LVL11:
 337:Generated_Source\PSoC5/cyfitter_cfg.c **** 	CY_SET_XTND_REG8((void CYFAR *)(CYREG_BG_DFT0), (bg_xover_inl_trim & 0x07u));
 114              		.loc 1 337 0
 115 0006 03F00701 		and	r1, r3, #7
 116 000a 054A     		ldr	r2, .L8+4
ARM GAS  C:\Users\tardi\AppData\Local\Temp\ccIz4Bbo.s 			page 9


 117 000c 1170     		strb	r1, [r2]
 338:Generated_Source\PSoC5/cyfitter_cfg.c **** 	CY_SET_XTND_REG8((void CYFAR *)(CYREG_BG_DFT1), ((bg_xover_inl_trim >> 4) & 0x0Fu));
 118              		.loc 1 338 0
 119 000e 1B09     		lsrs	r3, r3, #4
 120              	.LVL12:
 121 0010 0132     		adds	r2, r2, #1
 122 0012 1370     		strb	r3, [r2]
 339:Generated_Source\PSoC5/cyfitter_cfg.c **** 	CY_SET_XTND_REG8((void CYFAR *)CYREG_PUMP_CR0, 0x44u);
 123              		.loc 1 339 0
 124 0014 4422     		movs	r2, #68
 125 0016 034B     		ldr	r3, .L8+8
 126 0018 1A70     		strb	r2, [r3]
 127 001a 7047     		bx	lr
 128              	.L9:
 129              		.align	2
 130              	.L8:
 131 001c CF010049 		.word	1224737231
 132 0020 6E580040 		.word	1073764462
 133 0024 76580040 		.word	1073764470
 134              		.cfi_endproc
 135              	.LFE5:
 136              		.size	AnalogSetDefault, .-AnalogSetDefault
 137              		.section	.text.CYMEMZERO,"ax",%progbits
 138              		.align	2
 139              		.thumb
 140              		.thumb_func
 141              		.type	CYMEMZERO, %function
 142              	CYMEMZERO:
 143              	.LFB0:
  76:Generated_Source\PSoC5/cyfitter_cfg.c **** 	(void)memset(s, 0, n);
 144              		.loc 1 76 0
 145              		.cfi_startproc
 146              		@ args = 0, pretend = 0, frame = 0
 147              		@ frame_needed = 0, uses_anonymous_args = 0
 148              	.LVL13:
 149 0000 08B5     		push	{r3, lr}
 150              		.cfi_def_cfa_offset 8
 151              		.cfi_offset 3, -8
 152              		.cfi_offset 14, -4
  77:Generated_Source\PSoC5/cyfitter_cfg.c **** }
 153              		.loc 1 77 0
 154 0002 0A46     		mov	r2, r1
 155 0004 0021     		movs	r1, #0
 156              	.LVL14:
 157 0006 FFF7FEFF 		bl	memset
 158              	.LVL15:
 159 000a 08BD     		pop	{r3, pc}
 160              		.cfi_endproc
 161              	.LFE0:
 162              		.size	CYMEMZERO, .-CYMEMZERO
 163              		.section	.text.ClockSetup,"ax",%progbits
 164              		.align	2
 165              		.thumb
 166              		.thumb_func
 167              		.type	ClockSetup, %function
 168              	ClockSetup:
 169              	.LFB4:
ARM GAS  C:\Users\tardi\AppData\Local\Temp\ccIz4Bbo.s 			page 10


 274:Generated_Source\PSoC5/cyfitter_cfg.c **** 	uint32 timeout;
 170              		.loc 1 274 0
 171              		.cfi_startproc
 172              		@ args = 0, pretend = 0, frame = 0
 173              		@ frame_needed = 0, uses_anonymous_args = 0
 174 0000 38B5     		push	{r3, r4, r5, lr}
 175              		.cfi_def_cfa_offset 16
 176              		.cfi_offset 3, -16
 177              		.cfi_offset 4, -12
 178              		.cfi_offset 5, -8
 179              		.cfi_offset 14, -4
 280:Generated_Source\PSoC5/cyfitter_cfg.c **** 	CY_SET_XTND_REG8((void CYFAR *)(CYREG_CLKDIST_DCFG0_CFG0 + 0x2u), 0x18u);
 180              		.loc 1 280 0
 181 0002 0222     		movs	r2, #2
 182 0004 234B     		ldr	r3, .L17
 183 0006 1A80     		strh	r2, [r3]	@ movhi
 281:Generated_Source\PSoC5/cyfitter_cfg.c **** 	CY_SET_XTND_REG16((void CYFAR *)(CYREG_CLKDIST_DCFG1_CFG0), 0x0008u);
 184              		.loc 1 281 0
 185 0008 1823     		movs	r3, #24
 186 000a 234A     		ldr	r2, .L17+4
 187 000c 1370     		strb	r3, [r2]
 282:Generated_Source\PSoC5/cyfitter_cfg.c **** 	CY_SET_XTND_REG8((void CYFAR *)(CYREG_CLKDIST_DCFG1_CFG0 + 0x2u), 0x18u);
 188              		.loc 1 282 0
 189 000e 0821     		movs	r1, #8
 190 0010 0232     		adds	r2, r2, #2
 191 0012 1180     		strh	r1, [r2]	@ movhi
 283:Generated_Source\PSoC5/cyfitter_cfg.c **** 
 192              		.loc 1 283 0
 193 0014 0232     		adds	r2, r2, #2
 194 0016 1370     		strb	r3, [r2]
 286:Generated_Source\PSoC5/cyfitter_cfg.c **** 
 195              		.loc 1 286 0
 196 0018 0622     		movs	r2, #6
 197 001a 204B     		ldr	r3, .L17+8
 198 001c 1A70     		strb	r2, [r3]
 289:Generated_Source\PSoC5/cyfitter_cfg.c **** 	CY_SET_XTND_REG8((void CYFAR *)(CYREG_IMO_TR1), (CY_GET_XTND_REG8((void CYFAR *)(CYREG_FLSHID_MFG_
 199              		.loc 1 289 0
 200 001e 0422     		movs	r2, #4
 201 0020 A3F58073 		sub	r3, r3, #256
 202 0024 1A70     		strb	r2, [r3]
 290:Generated_Source\PSoC5/cyfitter_cfg.c **** 
 203              		.loc 1 290 0
 204 0026 1E4B     		ldr	r3, .L17+12
 205 0028 1B78     		ldrb	r3, [r3]	@ zero_extendqisi2
 206 002a DBB2     		uxtb	r3, r3
 207 002c 1D4A     		ldr	r2, .L17+16
 208 002e 1370     		strb	r3, [r2]
 293:Generated_Source\PSoC5/cyfitter_cfg.c **** 
 209              		.loc 1 293 0
 210 0030 0024     		movs	r4, #0
 211 0032 1D4B     		ldr	r3, .L17+20
 212 0034 1C80     		strh	r4, [r3]	@ movhi
 296:Generated_Source\PSoC5/cyfitter_cfg.c **** 	CY_SET_XTND_REG16((void CYFAR *)(CYREG_FASTCLK_PLL_CFG0), 0x1251u);
 213              		.loc 1 296 0
 214 0036 4FF47162 		mov	r2, #3856
 215 003a 03F21E23 		addw	r3, r3, #542
 216 003e 1A80     		strh	r2, [r3]	@ movhi
ARM GAS  C:\Users\tardi\AppData\Local\Temp\ccIz4Bbo.s 			page 11


 297:Generated_Source\PSoC5/cyfitter_cfg.c **** 	/* Wait up to 250us for the PLL to lock */
 217              		.loc 1 297 0
 218 0040 41F25122 		movw	r2, #4689
 219 0044 023B     		subs	r3, r3, #2
 220 0046 1A80     		strh	r2, [r3]	@ movhi
 221              	.LVL16:
 300:Generated_Source\PSoC5/cyfitter_cfg.c **** 	{ 
 222              		.loc 1 300 0
 223 0048 1925     		movs	r5, #25
 224 004a 0CE0     		b	.L13
 225              	.LVL17:
 226              	.L15:
 302:Generated_Source\PSoC5/cyfitter_cfg.c **** 		CyDelayCycles(10u * 48u); /* Delay 10us based on 48MHz clock */
 227              		.loc 1 302 0 discriminator 4
 228 004c 174B     		ldr	r3, .L17+24
 229 004e 1B78     		ldrb	r3, [r3]	@ zero_extendqisi2
 230 0050 03F00103 		and	r3, r3, #1
 231 0054 43EA4404 		orr	r4, r3, r4, lsl #1
 232              	.LVL18:
 233 0058 04F00304 		and	r4, r4, #3
 234              	.LVL19:
 303:Generated_Source\PSoC5/cyfitter_cfg.c **** 	}
 235              		.loc 1 303 0 discriminator 4
 236 005c 4FF4F070 		mov	r0, #480
 237 0060 FFF7FEFF 		bl	CyDelayCycles
 238              	.LVL20:
 300:Generated_Source\PSoC5/cyfitter_cfg.c **** 	{ 
 239              		.loc 1 300 0 discriminator 4
 240 0064 013D     		subs	r5, r5, #1
 241              	.LVL21:
 242              	.L13:
 300:Generated_Source\PSoC5/cyfitter_cfg.c **** 	{ 
 243              		.loc 1 300 0 is_stmt 0 discriminator 1
 244 0066 0DB1     		cbz	r5, .L14
 300:Generated_Source\PSoC5/cyfitter_cfg.c **** 	{ 
 245              		.loc 1 300 0 discriminator 3
 246 0068 032C     		cmp	r4, #3
 247 006a EFD1     		bne	.L15
 248              	.L14:
 305:Generated_Source\PSoC5/cyfitter_cfg.c **** 	CY_SET_XTND_REG8((void CYFAR *)(CYREG_CLKDIST_BCFG0), 0x00u);
 249              		.loc 1 305 0 is_stmt 1
 250 006c 0E4B     		ldr	r3, .L17+20
 251 006e 0722     		movs	r2, #7
 252 0070 1A70     		strb	r2, [r3]
 306:Generated_Source\PSoC5/cyfitter_cfg.c **** 	CY_SET_XTND_REG8((void CYFAR *)(CYREG_CLKDIST_BCFG2), 0x48u);
 253              		.loc 1 306 0
 254 0072 0022     		movs	r2, #0
 255 0074 0E49     		ldr	r1, .L17+28
 256 0076 0A70     		strb	r2, [r1]
 307:Generated_Source\PSoC5/cyfitter_cfg.c **** 	CY_SET_XTND_REG8((void CYFAR *)(CYREG_CLKDIST_MSTR0), 0x00u);
 257              		.loc 1 307 0
 258 0078 4820     		movs	r0, #72
 259 007a 0231     		adds	r1, r1, #2
 260 007c 0870     		strb	r0, [r1]
 308:Generated_Source\PSoC5/cyfitter_cfg.c **** 	CY_SET_XTND_REG8((void CYFAR *)(CYREG_CLKDIST_LD), 0x02u);
 261              		.loc 1 308 0
 262 007e 1A70     		strb	r2, [r3]
ARM GAS  C:\Users\tardi\AppData\Local\Temp\ccIz4Bbo.s 			page 12


 309:Generated_Source\PSoC5/cyfitter_cfg.c **** 
 263              		.loc 1 309 0
 264 0080 0222     		movs	r2, #2
 265 0082 033B     		subs	r3, r3, #3
 266 0084 1A70     		strb	r2, [r3]
 311:Generated_Source\PSoC5/cyfitter_cfg.c **** }
 267              		.loc 1 311 0
 268 0086 0B4A     		ldr	r2, .L17+32
 269 0088 1378     		ldrb	r3, [r2]	@ zero_extendqisi2
 270 008a 43F00303 		orr	r3, r3, #3
 271 008e 1370     		strb	r3, [r2]
 272 0090 38BD     		pop	{r3, r4, r5, pc}
 273              	.LVL22:
 274              	.L18:
 275 0092 00BF     		.align	2
 276              	.L17:
 277 0094 80400040 		.word	1073758336
 278 0098 82400040 		.word	1073758338
 279 009c 00430040 		.word	1073758976
 280 00a0 89010049 		.word	1224737161
 281 00a4 A1460040 		.word	1073759905
 282 00a8 04400040 		.word	1073758212
 283 00ac 25420040 		.word	1073758757
 284 00b0 06400040 		.word	1073758214
 285 00b4 A2430040 		.word	1073759138
 286              		.cfi_endproc
 287              	.LFE4:
 288              		.size	ClockSetup, .-ClockSetup
 289              		.section	.text.CYCONFIGCPY,"ax",%progbits
 290              		.align	2
 291              		.thumb
 292              		.thumb_func
 293              		.type	CYCONFIGCPY, %function
 294              	CYCONFIGCPY:
 295              	.LFB1:
  83:Generated_Source\PSoC5/cyfitter_cfg.c **** 	(void)memcpy(dest, src, n);
 296              		.loc 1 83 0
 297              		.cfi_startproc
 298              		@ args = 0, pretend = 0, frame = 0
 299              		@ frame_needed = 0, uses_anonymous_args = 0
 300              	.LVL23:
 301 0000 08B5     		push	{r3, lr}
 302              		.cfi_def_cfa_offset 8
 303              		.cfi_offset 3, -8
 304              		.cfi_offset 14, -4
  84:Generated_Source\PSoC5/cyfitter_cfg.c **** }
 305              		.loc 1 84 0
 306 0002 FFF7FEFF 		bl	memcpy
 307              	.LVL24:
 308 0006 08BD     		pop	{r3, pc}
 309              		.cfi_endproc
 310              	.LFE1:
 311              		.size	CYCONFIGCPY, .-CYCONFIGCPY
 312              		.section	.text.SetAnalogRoutingPumps,"ax",%progbits
 313              		.align	2
 314              		.global	SetAnalogRoutingPumps
 315              		.thumb
ARM GAS  C:\Users\tardi\AppData\Local\Temp\ccIz4Bbo.s 			page 13


 316              		.thumb_func
 317              		.type	SetAnalogRoutingPumps, %function
 318              	SetAnalogRoutingPumps:
 319              	.LFB6:
 340:Generated_Source\PSoC5/cyfitter_cfg.c **** }
 341:Generated_Source\PSoC5/cyfitter_cfg.c **** 
 342:Generated_Source\PSoC5/cyfitter_cfg.c **** 
 343:Generated_Source\PSoC5/cyfitter_cfg.c **** /*******************************************************************************
 344:Generated_Source\PSoC5/cyfitter_cfg.c **** * Function Name: SetAnalogRoutingPumps
 345:Generated_Source\PSoC5/cyfitter_cfg.c **** ********************************************************************************
 346:Generated_Source\PSoC5/cyfitter_cfg.c **** *
 347:Generated_Source\PSoC5/cyfitter_cfg.c **** * Summary:
 348:Generated_Source\PSoC5/cyfitter_cfg.c **** * Enables or disables the analog pumps feeding analog routing switches.
 349:Generated_Source\PSoC5/cyfitter_cfg.c **** * Intended to be called at startup, based on the Vdda system configuration;
 350:Generated_Source\PSoC5/cyfitter_cfg.c **** * may be called during operation when the user informs us that the Vdda voltage
 351:Generated_Source\PSoC5/cyfitter_cfg.c **** * crossed the pump threshold.
 352:Generated_Source\PSoC5/cyfitter_cfg.c **** *
 353:Generated_Source\PSoC5/cyfitter_cfg.c **** * Parameters:
 354:Generated_Source\PSoC5/cyfitter_cfg.c **** *  enabled - 1 to enable the pumps, 0 to disable the pumps
 355:Generated_Source\PSoC5/cyfitter_cfg.c **** *
 356:Generated_Source\PSoC5/cyfitter_cfg.c **** * Return:
 357:Generated_Source\PSoC5/cyfitter_cfg.c **** *  void
 358:Generated_Source\PSoC5/cyfitter_cfg.c **** *
 359:Generated_Source\PSoC5/cyfitter_cfg.c **** *******************************************************************************/
 360:Generated_Source\PSoC5/cyfitter_cfg.c **** void SetAnalogRoutingPumps(uint8 enabled)
 361:Generated_Source\PSoC5/cyfitter_cfg.c **** {
 320              		.loc 1 361 0
 321              		.cfi_startproc
 322              		@ args = 0, pretend = 0, frame = 0
 323              		@ frame_needed = 0, uses_anonymous_args = 0
 324              		@ link register save eliminated.
 325              	.LVL25:
 362:Generated_Source\PSoC5/cyfitter_cfg.c **** 	uint8 regValue = CY_GET_XTND_REG8((void CYFAR *)CYREG_PUMP_CR0);
 326              		.loc 1 362 0
 327 0000 024A     		ldr	r2, .L22
 328 0002 1378     		ldrb	r3, [r2]	@ zero_extendqisi2
 329 0004 DBB2     		uxtb	r3, r3
 330              	.LVL26:
 363:Generated_Source\PSoC5/cyfitter_cfg.c **** 	if (enabled != 0u)
 364:Generated_Source\PSoC5/cyfitter_cfg.c **** 	{
 365:Generated_Source\PSoC5/cyfitter_cfg.c **** 		regValue |= 0x00u;
 366:Generated_Source\PSoC5/cyfitter_cfg.c **** 	}
 367:Generated_Source\PSoC5/cyfitter_cfg.c **** 	else
 368:Generated_Source\PSoC5/cyfitter_cfg.c **** 	{
 369:Generated_Source\PSoC5/cyfitter_cfg.c **** 		regValue &= (uint8)~0x00u;
 370:Generated_Source\PSoC5/cyfitter_cfg.c **** 	}
 371:Generated_Source\PSoC5/cyfitter_cfg.c **** 	CY_SET_XTND_REG8((void CYFAR *)CYREG_PUMP_CR0, regValue);
 331              		.loc 1 371 0
 332 0006 1370     		strb	r3, [r2]
 333 0008 7047     		bx	lr
 334              	.L23:
 335 000a 00BF     		.align	2
 336              	.L22:
 337 000c 76580040 		.word	1073764470
 338              		.cfi_endproc
 339              	.LFE6:
 340              		.size	SetAnalogRoutingPumps, .-SetAnalogRoutingPumps
ARM GAS  C:\Users\tardi\AppData\Local\Temp\ccIz4Bbo.s 			page 14


 341              		.section	.text.cyfitter_cfg,"ax",%progbits
 342              		.align	2
 343              		.global	cyfitter_cfg
 344              		.thumb
 345              		.thumb_func
 346              		.type	cyfitter_cfg, %function
 347              	cyfitter_cfg:
 348              	.LFB7:
 372:Generated_Source\PSoC5/cyfitter_cfg.c **** }
 373:Generated_Source\PSoC5/cyfitter_cfg.c **** 
 374:Generated_Source\PSoC5/cyfitter_cfg.c **** 
 375:Generated_Source\PSoC5/cyfitter_cfg.c **** 
 376:Generated_Source\PSoC5/cyfitter_cfg.c **** 
 377:Generated_Source\PSoC5/cyfitter_cfg.c **** /*******************************************************************************
 378:Generated_Source\PSoC5/cyfitter_cfg.c **** * Function Name: cyfitter_cfg
 379:Generated_Source\PSoC5/cyfitter_cfg.c **** ********************************************************************************
 380:Generated_Source\PSoC5/cyfitter_cfg.c **** * Summary:
 381:Generated_Source\PSoC5/cyfitter_cfg.c **** *  This function is called by the start-up code for the selected device. It
 382:Generated_Source\PSoC5/cyfitter_cfg.c **** *  performs all of the necessary device configuration based on the design
 383:Generated_Source\PSoC5/cyfitter_cfg.c **** *  settings.  This includes settings from the Design Wide Resources (DWR) such
 384:Generated_Source\PSoC5/cyfitter_cfg.c **** *  as Clocks and Pins as well as any component configuration that is necessary.
 385:Generated_Source\PSoC5/cyfitter_cfg.c **** *
 386:Generated_Source\PSoC5/cyfitter_cfg.c **** * Parameters:
 387:Generated_Source\PSoC5/cyfitter_cfg.c **** *   void
 388:Generated_Source\PSoC5/cyfitter_cfg.c **** *
 389:Generated_Source\PSoC5/cyfitter_cfg.c **** * Return:
 390:Generated_Source\PSoC5/cyfitter_cfg.c **** *   void
 391:Generated_Source\PSoC5/cyfitter_cfg.c **** *
 392:Generated_Source\PSoC5/cyfitter_cfg.c **** *******************************************************************************/
 393:Generated_Source\PSoC5/cyfitter_cfg.c **** 
 394:Generated_Source\PSoC5/cyfitter_cfg.c **** void cyfitter_cfg(void)
 395:Generated_Source\PSoC5/cyfitter_cfg.c **** {
 349              		.loc 1 395 0
 350              		.cfi_startproc
 351              		@ args = 0, pretend = 0, frame = 0
 352              		@ frame_needed = 0, uses_anonymous_args = 0
 353 0000 38B5     		push	{r3, r4, r5, lr}
 354              		.cfi_def_cfa_offset 16
 355              		.cfi_offset 3, -16
 356              		.cfi_offset 4, -12
 357              		.cfi_offset 5, -8
 358              		.cfi_offset 14, -4
 396:Generated_Source\PSoC5/cyfitter_cfg.c **** #ifdef CYGlobalIntDisable
 397:Generated_Source\PSoC5/cyfitter_cfg.c **** 	/* Disable interrupts by default. Let user enable if/when they want. */
 398:Generated_Source\PSoC5/cyfitter_cfg.c **** 	CYGlobalIntDisable
 359              		.loc 1 398 0
 360              		.syntax unified
 361              	@ 398 "Generated_Source\PSoC5\cyfitter_cfg.c" 1
 362 0002 72B6     		CPSID   i
 363              	@ 0 "" 2
 399:Generated_Source\PSoC5/cyfitter_cfg.c **** #endif
 400:Generated_Source\PSoC5/cyfitter_cfg.c **** 
 401:Generated_Source\PSoC5/cyfitter_cfg.c **** 	/* Enable/Disable Debug functionality based on settings from System DWR */
 402:Generated_Source\PSoC5/cyfitter_cfg.c **** 	CY_SET_XTND_REG8((void CYFAR *)CYREG_MLOGIC_DEBUG, (CY_GET_XTND_REG8((void CYFAR *)CYREG_MLOGIC_DE
 364              		.loc 1 402 0
 365              		.thumb
 366              		.syntax unified
ARM GAS  C:\Users\tardi\AppData\Local\Temp\ccIz4Bbo.s 			page 15


 367 0004 504A     		ldr	r2, .L30
 368 0006 1378     		ldrb	r3, [r2]	@ zero_extendqisi2
 369 0008 43F00403 		orr	r3, r3, #4
 370 000c 1370     		strb	r3, [r2]
 371              	.LVL27:
 372              	.LBB3:
 403:Generated_Source\PSoC5/cyfitter_cfg.c **** 
 404:Generated_Source\PSoC5/cyfitter_cfg.c **** 	{
 405:Generated_Source\PSoC5/cyfitter_cfg.c **** 
 406:Generated_Source\PSoC5/cyfitter_cfg.c **** 		CYPACKED typedef struct {
 407:Generated_Source\PSoC5/cyfitter_cfg.c **** 			void CYFAR *address;
 408:Generated_Source\PSoC5/cyfitter_cfg.c **** 			uint16 size;
 409:Generated_Source\PSoC5/cyfitter_cfg.c **** 		} CYPACKED_ATTR cfg_memset_t;
 410:Generated_Source\PSoC5/cyfitter_cfg.c **** 
 411:Generated_Source\PSoC5/cyfitter_cfg.c **** 
 412:Generated_Source\PSoC5/cyfitter_cfg.c **** 		CYPACKED typedef struct {
 413:Generated_Source\PSoC5/cyfitter_cfg.c **** 			void CYFAR *dest;
 414:Generated_Source\PSoC5/cyfitter_cfg.c **** 			const void CYFAR *src;
 415:Generated_Source\PSoC5/cyfitter_cfg.c **** 			uint16 size;
 416:Generated_Source\PSoC5/cyfitter_cfg.c **** 		} CYPACKED_ATTR cfg_memcpy_t;
 417:Generated_Source\PSoC5/cyfitter_cfg.c **** 
 418:Generated_Source\PSoC5/cyfitter_cfg.c **** 		static const cfg_memset_t CYCODE cfg_memset_list[] = {
 419:Generated_Source\PSoC5/cyfitter_cfg.c **** 			/* address, size */
 420:Generated_Source\PSoC5/cyfitter_cfg.c **** 			{(void CYFAR *)(CYREG_PRT4_DR), 48u},
 421:Generated_Source\PSoC5/cyfitter_cfg.c **** 			{(void CYFAR *)(CYDEV_UCFG_B0_P0_U0_BASE), 640u},
 422:Generated_Source\PSoC5/cyfitter_cfg.c **** 			{(void CYFAR *)(CYDEV_UCFG_B0_P1_ROUTE_BASE), 896u},
 423:Generated_Source\PSoC5/cyfitter_cfg.c **** 			{(void CYFAR *)(CYDEV_UCFG_B0_P3_ROUTE_BASE), 896u},
 424:Generated_Source\PSoC5/cyfitter_cfg.c **** 			{(void CYFAR *)(CYDEV_UCFG_B0_P5_ROUTE_BASE), 768u},
 425:Generated_Source\PSoC5/cyfitter_cfg.c **** 			{(void CYFAR *)(CYDEV_UCFG_B0_P7_U1_BASE), 384u},
 426:Generated_Source\PSoC5/cyfitter_cfg.c **** 			{(void CYFAR *)(CYDEV_UCFG_B1_P2_U0_BASE), 128u},
 427:Generated_Source\PSoC5/cyfitter_cfg.c **** 			{(void CYFAR *)(CYDEV_UCFG_B1_P2_ROUTE_BASE), 384u},
 428:Generated_Source\PSoC5/cyfitter_cfg.c **** 			{(void CYFAR *)(CYDEV_UCFG_B1_P3_ROUTE_BASE), 384u},
 429:Generated_Source\PSoC5/cyfitter_cfg.c **** 			{(void CYFAR *)(CYDEV_UCFG_B1_P4_ROUTE_BASE), 768u},
 430:Generated_Source\PSoC5/cyfitter_cfg.c **** 			{(void CYFAR *)(CYDEV_UCFG_DSI0_BASE), 2560u},
 431:Generated_Source\PSoC5/cyfitter_cfg.c **** 			{(void CYFAR *)(CYDEV_UCFG_DSI12_BASE), 512u},
 432:Generated_Source\PSoC5/cyfitter_cfg.c **** 			{(void CYFAR *)(CYREG_BCTL0_MDCLK_EN), 32u},
 433:Generated_Source\PSoC5/cyfitter_cfg.c **** 		};
 434:Generated_Source\PSoC5/cyfitter_cfg.c **** 
 435:Generated_Source\PSoC5/cyfitter_cfg.c **** 		static const cfg_memcpy_t CYCODE cfg_memcpy_list [] = {
 436:Generated_Source\PSoC5/cyfitter_cfg.c **** 			/* dest, src, size */
 437:Generated_Source\PSoC5/cyfitter_cfg.c **** 			{(void CYFAR *)(CYREG_IDMUX_DRQ_CTL0), BS_IDMUX_VAL, 6u},
 438:Generated_Source\PSoC5/cyfitter_cfg.c **** 			{(void CYFAR *)(CYDEV_UCFG_B0_P1_U1_BASE), BS_UDB_1_4_0_CONFIG_VAL, 128u},
 439:Generated_Source\PSoC5/cyfitter_cfg.c **** 			{(void CYFAR *)(CYDEV_UCFG_B0_P3_U1_BASE), BS_UDB_1_2_0_CONFIG_VAL, 128u},
 440:Generated_Source\PSoC5/cyfitter_cfg.c **** 			{(void CYFAR *)(CYDEV_UCFG_B0_P5_U1_BASE), BS_UDB_0_3_1_CONFIG_VAL, 128u},
 441:Generated_Source\PSoC5/cyfitter_cfg.c **** 			{(void CYFAR *)(CYDEV_UCFG_B0_P7_U0_BASE), BS_UDB_0_5_0_CONFIG_VAL, 128u},
 442:Generated_Source\PSoC5/cyfitter_cfg.c **** 			{(void CYFAR *)(CYDEV_UCFG_B1_P2_U1_BASE), BS_UDB_1_0_1_CONFIG_VAL, 128u},
 443:Generated_Source\PSoC5/cyfitter_cfg.c **** 			{(void CYFAR *)(CYDEV_UCFG_B1_P3_U1_BASE), BS_UDB_1_1_0_CONFIG_VAL, 128u},
 444:Generated_Source\PSoC5/cyfitter_cfg.c **** 			{(void CYFAR *)(CYDEV_UCFG_B1_P4_U1_BASE), BS_UDB_0_1_0_CONFIG_VAL, 128u},
 445:Generated_Source\PSoC5/cyfitter_cfg.c **** 		};
 446:Generated_Source\PSoC5/cyfitter_cfg.c **** 
 447:Generated_Source\PSoC5/cyfitter_cfg.c **** 		uint8 CYDATA i;
 448:Generated_Source\PSoC5/cyfitter_cfg.c **** 
 449:Generated_Source\PSoC5/cyfitter_cfg.c **** 		/* Zero out critical memory blocks before beginning configuration */
 450:Generated_Source\PSoC5/cyfitter_cfg.c **** 		for (i = 0u; i < (sizeof(cfg_memset_list)/sizeof(cfg_memset_list[0])); i++)
 373              		.loc 1 450 0
 374 000e 0024     		movs	r4, #0
 375 0010 0CE0     		b	.L25
ARM GAS  C:\Users\tardi\AppData\Local\Temp\ccIz4Bbo.s 			page 16


 376              	.LVL28:
 377              	.L26:
 378              	.LBB4:
 451:Generated_Source\PSoC5/cyfitter_cfg.c **** 		{
 452:Generated_Source\PSoC5/cyfitter_cfg.c **** 			const cfg_memset_t CYCODE * CYDATA ms = &cfg_memset_list[i];
 453:Generated_Source\PSoC5/cyfitter_cfg.c **** 			CYMEMZERO(ms->address, (size_t)(uint32)(ms->size));
 379              		.loc 1 453 0 discriminator 3
 380 0012 4E4D     		ldr	r5, .L30+4
 381 0014 6300     		lsls	r3, r4, #1
 382 0016 1919     		adds	r1, r3, r4
 383 0018 4A00     		lsls	r2, r1, #1
 384 001a 1146     		mov	r1, r2
 385 001c 2A44     		add	r2, r2, r5
 386 001e 0846     		mov	r0, r1
 387 0020 9188     		ldrh	r1, [r2, #4]
 388 0022 2858     		ldr	r0, [r5, r0]	@ unaligned
 389 0024 FFF7FEFF 		bl	CYMEMZERO
 390              	.LVL29:
 391              	.LBE4:
 450:Generated_Source\PSoC5/cyfitter_cfg.c **** 		{
 392              		.loc 1 450 0 discriminator 3
 393 0028 0134     		adds	r4, r4, #1
 394              	.LVL30:
 395 002a E4B2     		uxtb	r4, r4
 396              	.LVL31:
 397              	.L25:
 450:Generated_Source\PSoC5/cyfitter_cfg.c **** 		{
 398              		.loc 1 450 0 is_stmt 0 discriminator 1
 399 002c 0C2C     		cmp	r4, #12
 400 002e F0D9     		bls	.L26
 401 0030 0024     		movs	r4, #0
 402              	.LVL32:
 403 0032 0CE0     		b	.L27
 404              	.LVL33:
 405              	.L28:
 406              	.LBB5:
 454:Generated_Source\PSoC5/cyfitter_cfg.c **** 		}
 455:Generated_Source\PSoC5/cyfitter_cfg.c **** 
 456:Generated_Source\PSoC5/cyfitter_cfg.c **** 		/* Copy device configuration data into registers */
 457:Generated_Source\PSoC5/cyfitter_cfg.c **** 		for (i = 0u; i < (sizeof(cfg_memcpy_list)/sizeof(cfg_memcpy_list[0])); i++)
 458:Generated_Source\PSoC5/cyfitter_cfg.c **** 		{
 459:Generated_Source\PSoC5/cyfitter_cfg.c **** 			const cfg_memcpy_t CYCODE * CYDATA mc = &cfg_memcpy_list[i];
 460:Generated_Source\PSoC5/cyfitter_cfg.c **** 			void * CYDATA destPtr = mc->dest;
 407              		.loc 1 460 0 is_stmt 1 discriminator 3
 408 0034 4548     		ldr	r0, .L30+4
 409 0036 A200     		lsls	r2, r4, #2
 410 0038 1119     		adds	r1, r2, r4
 411 003a 4B00     		lsls	r3, r1, #1
 412 003c 0344     		add	r3, r3, r0
 413              	.LVL34:
 461:Generated_Source\PSoC5/cyfitter_cfg.c **** 			const void * CYDATA srcPtr = mc->src;
 462:Generated_Source\PSoC5/cyfitter_cfg.c **** 			uint16 CYDATA numBytes = mc->size;
 463:Generated_Source\PSoC5/cyfitter_cfg.c **** 			CYCONFIGCPY(destPtr, srcPtr, numBytes);
 414              		.loc 1 463 0 discriminator 3
 415 003e B3F85820 		ldrh	r2, [r3, #88]
 416 0042 596D     		ldr	r1, [r3, #84]	@ unaligned
 417              	.LVL35:
ARM GAS  C:\Users\tardi\AppData\Local\Temp\ccIz4Bbo.s 			page 17


 418 0044 186D     		ldr	r0, [r3, #80]	@ unaligned
 419              	.LVL36:
 420 0046 FFF7FEFF 		bl	CYCONFIGCPY
 421              	.LVL37:
 422              	.LBE5:
 457:Generated_Source\PSoC5/cyfitter_cfg.c **** 		{
 423              		.loc 1 457 0 discriminator 3
 424 004a 0134     		adds	r4, r4, #1
 425              	.LVL38:
 426 004c E4B2     		uxtb	r4, r4
 427              	.LVL39:
 428              	.L27:
 457:Generated_Source\PSoC5/cyfitter_cfg.c **** 		{
 429              		.loc 1 457 0 is_stmt 0 discriminator 1
 430 004e 072C     		cmp	r4, #7
 431 0050 F0D9     		bls	.L28
 464:Generated_Source\PSoC5/cyfitter_cfg.c **** 		}
 465:Generated_Source\PSoC5/cyfitter_cfg.c **** 
 466:Generated_Source\PSoC5/cyfitter_cfg.c **** 		cfg_write_bytes32(cy_cfg_addr_table, cy_cfg_data_table);
 432              		.loc 1 466 0 is_stmt 1
 433 0052 3F49     		ldr	r1, .L30+8
 434 0054 4FF09040 		mov	r0, #1207959552
 435 0058 FFF7FEFF 		bl	cfg_write_bytes32
 436              	.LVL40:
 467:Generated_Source\PSoC5/cyfitter_cfg.c **** 
 468:Generated_Source\PSoC5/cyfitter_cfg.c **** 		/* Perform normal device configuration. Order is not critical for these items. */
 469:Generated_Source\PSoC5/cyfitter_cfg.c **** 		CYMEMZERO((void CYFAR *)(CYREG_PHUB_CFGMEM0_CFG0), 4u);
 437              		.loc 1 469 0
 438 005c 0421     		movs	r1, #4
 439 005e 3D48     		ldr	r0, .L30+12
 440 0060 FFF7FEFF 		bl	CYMEMZERO
 441              	.LVL41:
 470:Generated_Source\PSoC5/cyfitter_cfg.c **** 		CYCONFIGCPY((void CYFAR *)(CYREG_PHUB_CFGMEM1_CFG0), (const void CYFAR *)(BS_PHUB_CFGMEM1_VAL), 4
 442              		.loc 1 470 0
 443 0064 0422     		movs	r2, #4
 444 0066 3C49     		ldr	r1, .L30+16
 445 0068 3C48     		ldr	r0, .L30+20
 446 006a FFF7FEFF 		bl	CYCONFIGCPY
 447              	.LVL42:
 471:Generated_Source\PSoC5/cyfitter_cfg.c **** 		CYCONFIGCPY((void CYFAR *)(CYREG_PHUB_CFGMEM2_CFG0), (const void CYFAR *)(BS_PHUB_CFGMEM2_VAL), 4
 448              		.loc 1 471 0
 449 006e 0422     		movs	r2, #4
 450 0070 3B49     		ldr	r1, .L30+24
 451 0072 3C48     		ldr	r0, .L30+28
 452 0074 FFF7FEFF 		bl	CYCONFIGCPY
 453              	.LVL43:
 472:Generated_Source\PSoC5/cyfitter_cfg.c **** 		CYCONFIGCPY((void CYFAR *)(CYREG_PHUB_CFGMEM3_CFG0), (const void CYFAR *)(BS_PHUB_CFGMEM3_VAL), 4
 454              		.loc 1 472 0
 455 0078 0422     		movs	r2, #4
 456 007a 3B49     		ldr	r1, .L30+32
 457 007c 3B48     		ldr	r0, .L30+36
 458 007e FFF7FEFF 		bl	CYCONFIGCPY
 459              	.LVL44:
 473:Generated_Source\PSoC5/cyfitter_cfg.c **** 		CYCONFIGCPY((void CYFAR *)(CYREG_PHUB_CFGMEM4_CFG0), (const void CYFAR *)(BS_PHUB_CFGMEM4_VAL), 4
 460              		.loc 1 473 0
 461 0082 0422     		movs	r2, #4
 462 0084 3A49     		ldr	r1, .L30+40
ARM GAS  C:\Users\tardi\AppData\Local\Temp\ccIz4Bbo.s 			page 18


 463 0086 3B48     		ldr	r0, .L30+44
 464 0088 FFF7FEFF 		bl	CYCONFIGCPY
 465              	.LVL45:
 474:Generated_Source\PSoC5/cyfitter_cfg.c **** 		CYCONFIGCPY((void CYFAR *)(CYREG_PHUB_CFGMEM5_CFG0), (const void CYFAR *)(BS_PHUB_CFGMEM5_VAL), 4
 466              		.loc 1 474 0
 467 008c 0422     		movs	r2, #4
 468 008e 3A49     		ldr	r1, .L30+48
 469 0090 3A48     		ldr	r0, .L30+52
 470 0092 FFF7FEFF 		bl	CYCONFIGCPY
 471              	.LVL46:
 475:Generated_Source\PSoC5/cyfitter_cfg.c **** 		CYCONFIGCPY((void CYFAR *)(CYREG_PHUB_CFGMEM6_CFG0), (const void CYFAR *)(BS_PHUB_CFGMEM6_VAL), 4
 472              		.loc 1 475 0
 473 0096 0422     		movs	r2, #4
 474 0098 3949     		ldr	r1, .L30+56
 475 009a 3A48     		ldr	r0, .L30+60
 476 009c FFF7FEFF 		bl	CYCONFIGCPY
 477              	.LVL47:
 476:Generated_Source\PSoC5/cyfitter_cfg.c **** 		CYCONFIGCPY((void CYFAR *)(CYREG_PHUB_CFGMEM7_CFG0), (const void CYFAR *)(BS_PHUB_CFGMEM7_VAL), 4
 478              		.loc 1 476 0
 479 00a0 0422     		movs	r2, #4
 480 00a2 3949     		ldr	r1, .L30+64
 481 00a4 3948     		ldr	r0, .L30+68
 482 00a6 FFF7FEFF 		bl	CYCONFIGCPY
 483              	.LVL48:
 477:Generated_Source\PSoC5/cyfitter_cfg.c **** 		CYMEMZERO((void CYFAR *)(CYREG_PHUB_CFGMEM8_CFG0), 4u);
 484              		.loc 1 477 0
 485 00aa 0421     		movs	r1, #4
 486 00ac 3848     		ldr	r0, .L30+72
 487 00ae FFF7FEFF 		bl	CYMEMZERO
 488              	.LVL49:
 478:Generated_Source\PSoC5/cyfitter_cfg.c **** 
 479:Generated_Source\PSoC5/cyfitter_cfg.c **** 		/* Enable digital routing */
 480:Generated_Source\PSoC5/cyfitter_cfg.c **** 		CY_SET_XTND_REG8((void CYFAR *)CYREG_BCTL0_BANK_CTL, CY_GET_XTND_REG8((void CYFAR *)CYREG_BCTL0_B
 489              		.loc 1 480 0
 490 00b2 384A     		ldr	r2, .L30+76
 491 00b4 1378     		ldrb	r3, [r2]	@ zero_extendqisi2
 492 00b6 43F00203 		orr	r3, r3, #2
 493 00ba 1370     		strb	r3, [r2]
 481:Generated_Source\PSoC5/cyfitter_cfg.c **** 		CY_SET_XTND_REG8((void CYFAR *)CYREG_BCTL1_BANK_CTL, CY_GET_XTND_REG8((void CYFAR *)CYREG_BCTL1_B
 494              		.loc 1 481 0
 495 00bc 1032     		adds	r2, r2, #16
 496 00be 1378     		ldrb	r3, [r2]	@ zero_extendqisi2
 497 00c0 43F00203 		orr	r3, r3, #2
 498 00c4 1370     		strb	r3, [r2]
 482:Generated_Source\PSoC5/cyfitter_cfg.c **** 
 483:Generated_Source\PSoC5/cyfitter_cfg.c **** 		/* Enable UDB array */
 484:Generated_Source\PSoC5/cyfitter_cfg.c **** 		CY_SET_XTND_REG8((void CYFAR *)CYREG_PM_ACT_CFG0, CY_GET_XTND_REG8((void CYFAR *)CYREG_PM_ACT_CFG
 499              		.loc 1 484 0
 500 00c6 344C     		ldr	r4, .L30+80
 501              	.LVL50:
 502 00c8 2378     		ldrb	r3, [r4]	@ zero_extendqisi2
 503 00ca 43F04003 		orr	r3, r3, #64
 504 00ce 2370     		strb	r3, [r4]
 485:Generated_Source\PSoC5/cyfitter_cfg.c **** 		CY_SET_XTND_REG8((void CYFAR *)CYREG_PM_AVAIL_CR2, CY_GET_XTND_REG8((void CYFAR *)CYREG_PM_AVAIL_
 505              		.loc 1 485 0
 506 00d0 A2F58632 		sub	r2, r2, #68608
 507 00d4 513A     		subs	r2, r2, #81
ARM GAS  C:\Users\tardi\AppData\Local\Temp\ccIz4Bbo.s 			page 19


 508 00d6 1378     		ldrb	r3, [r2]	@ zero_extendqisi2
 509 00d8 43F01003 		orr	r3, r3, #16
 510 00dc 1370     		strb	r3, [r2]
 511              	.LBE3:
 486:Generated_Source\PSoC5/cyfitter_cfg.c **** 	}
 487:Generated_Source\PSoC5/cyfitter_cfg.c **** 
 488:Generated_Source\PSoC5/cyfitter_cfg.c **** 
 489:Generated_Source\PSoC5/cyfitter_cfg.c **** 	/* Perform second pass device configuration. These items must be configured in specific order afte
 490:Generated_Source\PSoC5/cyfitter_cfg.c **** 	CYCONFIGCPY((void CYFAR *)(CYREG_PRT0_DR), (const void CYFAR *)(BS_IOPINS0_0_VAL), 10u);
 512              		.loc 1 490 0
 513 00de 0A22     		movs	r2, #10
 514 00e0 2E49     		ldr	r1, .L30+84
 515 00e2 2F48     		ldr	r0, .L30+88
 516 00e4 FFF7FEFF 		bl	CYCONFIGCPY
 517              	.LVL51:
 491:Generated_Source\PSoC5/cyfitter_cfg.c **** 	CYCONFIGCPY((void CYFAR *)(CYREG_PRT12_DR), (const void CYFAR *)(BS_IOPINS0_7_VAL), 10u);
 518              		.loc 1 491 0
 519 00e8 0A22     		movs	r2, #10
 520 00ea 2E49     		ldr	r1, .L30+92
 521 00ec 2E48     		ldr	r0, .L30+96
 522 00ee FFF7FEFF 		bl	CYCONFIGCPY
 523              	.LVL52:
 492:Generated_Source\PSoC5/cyfitter_cfg.c **** 	CYCONFIGCPY((void CYFAR *)(CYREG_PRT15_DR), (const void CYFAR *)(BS_IOPINS0_8_VAL), 10u);
 524              		.loc 1 492 0
 525 00f2 0A22     		movs	r2, #10
 526 00f4 2D49     		ldr	r1, .L30+100
 527 00f6 2E48     		ldr	r0, .L30+104
 528 00f8 FFF7FEFF 		bl	CYCONFIGCPY
 529              	.LVL53:
 493:Generated_Source\PSoC5/cyfitter_cfg.c **** 	CYCONFIGCPY((void CYFAR *)(CYREG_PRT1_DR), (const void CYFAR *)(BS_IOPINS0_1_VAL), 10u);
 530              		.loc 1 493 0
 531 00fc 0A22     		movs	r2, #10
 532 00fe 2D49     		ldr	r1, .L30+108
 533 0100 2D48     		ldr	r0, .L30+112
 534 0102 FFF7FEFF 		bl	CYCONFIGCPY
 535              	.LVL54:
 494:Generated_Source\PSoC5/cyfitter_cfg.c **** 	CYCONFIGCPY((void CYFAR *)(CYREG_PRT2_DM0), (const void CYFAR *)(BS_IOPINS0_2_VAL), 8u);
 536              		.loc 1 494 0
 537 0106 0822     		movs	r2, #8
 538 0108 2C49     		ldr	r1, .L30+116
 539 010a 2D48     		ldr	r0, .L30+120
 540 010c FFF7FEFF 		bl	CYCONFIGCPY
 541              	.LVL55:
 495:Generated_Source\PSoC5/cyfitter_cfg.c **** 	CYCONFIGCPY((void CYFAR *)(CYREG_PRT3_DR), (const void CYFAR *)(BS_IOPINS0_3_VAL), 10u);
 542              		.loc 1 495 0
 543 0110 0A22     		movs	r2, #10
 544 0112 2C49     		ldr	r1, .L30+124
 545 0114 2C48     		ldr	r0, .L30+128
 546 0116 FFF7FEFF 		bl	CYCONFIGCPY
 547              	.LVL56:
 496:Generated_Source\PSoC5/cyfitter_cfg.c **** 	/* Switch Boost to the precision bandgap reference from its internal reference */
 497:Generated_Source\PSoC5/cyfitter_cfg.c **** 	CY_SET_REG8((void CYXDATA *)CYREG_BOOST_CR2, (CY_GET_REG8((void CYXDATA *)CYREG_BOOST_CR2) | 0x08u
 548              		.loc 1 497 0
 549 011a 2C4A     		ldr	r2, .L30+132
 550 011c 1378     		ldrb	r3, [r2]	@ zero_extendqisi2
 551 011e 43F00803 		orr	r3, r3, #8
 552 0122 1370     		strb	r3, [r2]
ARM GAS  C:\Users\tardi\AppData\Local\Temp\ccIz4Bbo.s 			page 20


 498:Generated_Source\PSoC5/cyfitter_cfg.c **** 
 499:Generated_Source\PSoC5/cyfitter_cfg.c **** 	/* Set Flash Cycles based on max possible frequency in case a glitch occurs during ClockSetup(). *
 500:Generated_Source\PSoC5/cyfitter_cfg.c **** 	CY_SET_XTND_REG8((void CYFAR *)(CYREG_CACHE_CC_CTL), (((CYDEV_INSTRUCT_CACHE_ENABLED) != 0) ? 0x61
 553              		.loc 1 500 0
 554 0124 2A4D     		ldr	r5, .L30+136
 555 0126 6123     		movs	r3, #97
 556 0128 2B70     		strb	r3, [r5]
 501:Generated_Source\PSoC5/cyfitter_cfg.c **** 	/* Setup clocks based on selections from Clock DWR */
 502:Generated_Source\PSoC5/cyfitter_cfg.c **** 	ClockSetup();
 557              		.loc 1 502 0
 558 012a FFF7FEFF 		bl	ClockSetup
 559              	.LVL57:
 503:Generated_Source\PSoC5/cyfitter_cfg.c **** 	/* Set Flash Cycles based on newly configured 48.00MHz Bus Clock. */
 504:Generated_Source\PSoC5/cyfitter_cfg.c **** 	CY_SET_XTND_REG8((void CYFAR *)(CYREG_CACHE_CC_CTL), (((CYDEV_INSTRUCT_CACHE_ENABLED) != 0) ? 0xC1
 560              		.loc 1 504 0
 561 012e C123     		movs	r3, #193
 562 0130 2B70     		strb	r3, [r5]
 505:Generated_Source\PSoC5/cyfitter_cfg.c **** 	CY_SET_XTND_REG8((void CYFAR *)(CYREG_PANTHER_WAITPIPE), 0x01u);
 563              		.loc 1 505 0
 564 0132 0122     		movs	r2, #1
 565 0134 274B     		ldr	r3, .L30+140
 566 0136 1A70     		strb	r2, [r3]
 506:Generated_Source\PSoC5/cyfitter_cfg.c **** 
 507:Generated_Source\PSoC5/cyfitter_cfg.c **** 	/* Perform basic analog initialization to defaults */
 508:Generated_Source\PSoC5/cyfitter_cfg.c **** 	AnalogSetDefault();
 567              		.loc 1 508 0
 568 0138 FFF7FEFF 		bl	AnalogSetDefault
 569              	.LVL58:
 509:Generated_Source\PSoC5/cyfitter_cfg.c **** 
 510:Generated_Source\PSoC5/cyfitter_cfg.c **** 	/* Configure alternate active mode */
 511:Generated_Source\PSoC5/cyfitter_cfg.c **** 	CYCONFIGCPY((void CYFAR *)CYDEV_PM_STBY_BASE, (const void CYFAR *)CYDEV_PM_ACT_BASE, 14u);
 570              		.loc 1 511 0
 571 013c 0E22     		movs	r2, #14
 572 013e 2146     		mov	r1, r4
 573 0140 2548     		ldr	r0, .L30+144
 574 0142 FFF7FEFF 		bl	CYCONFIGCPY
 575              	.LVL59:
 576 0146 38BD     		pop	{r3, r4, r5, pc}
 577              	.L31:
 578              		.align	2
 579              	.L30:
 580 0148 E8460040 		.word	1073759976
 581 014c 00000000 		.word	.LANCHOR0
 582 0150 A0000048 		.word	1207959712
 583 0154 00760040 		.word	1073772032
 584 0158 24110048 		.word	1207963940
 585 015c 08760040 		.word	1073772040
 586 0160 28110048 		.word	1207963944
 587 0164 10760040 		.word	1073772048
 588 0168 2C110048 		.word	1207963948
 589 016c 18760040 		.word	1073772056
 590 0170 30110048 		.word	1207963952
 591 0174 20760040 		.word	1073772064
 592 0178 34110048 		.word	1207963956
 593 017c 28760040 		.word	1073772072
 594 0180 38110048 		.word	1207963960
 595 0184 30760040 		.word	1073772080
ARM GAS  C:\Users\tardi\AppData\Local\Temp\ccIz4Bbo.s 			page 21


 596 0188 3C110048 		.word	1207963964
 597 018c 38760040 		.word	1073772088
 598 0190 40760040 		.word	1073772096
 599 0194 03500140 		.word	1073827843
 600 0198 A0430040 		.word	1073759136
 601 019c E0100048 		.word	1207963872
 602 01a0 00510040 		.word	1073762560
 603 01a4 EC100048 		.word	1207963884
 604 01a8 C0510040 		.word	1073762752
 605 01ac F8100048 		.word	1207963896
 606 01b0 F0510040 		.word	1073762800
 607 01b4 04110048 		.word	1207963908
 608 01b8 10510040 		.word	1073762576
 609 01bc 10110048 		.word	1207963920
 610 01c0 22510040 		.word	1073762594
 611 01c4 18110048 		.word	1207963928
 612 01c8 30510040 		.word	1073762608
 613 01cc 22430040 		.word	1073759010
 614 01d0 00480040 		.word	1073760256
 615 01d4 04000840 		.word	1074266116
 616 01d8 B0430040 		.word	1073759152
 617              		.cfi_endproc
 618              	.LFE7:
 619              		.size	cyfitter_cfg, .-cyfitter_cfg
 620              		.section	.rodata
 621              		.align	2
 622              		.set	.LANCHOR0,. + 0
 623              		.type	cfg_memset_list.5012, %object
 624              		.size	cfg_memset_list.5012, 78
 625              	cfg_memset_list.5012:
 626 0000 40510040 		.word	1073762624
 627 0004 3000     		.short	48
 628 0006 00000140 		.4byte	1073807360
 629 000a 8002     		.short	640
 630 000c 00030140 		.word	1073808128
 631 0010 8003     		.short	896
 632 0012 00070140 		.4byte	1073809152
 633 0016 8003     		.short	896
 634 0018 000B0140 		.word	1073810176
 635 001c 0003     		.short	768
 636 001e 800E0140 		.4byte	1073811072
 637 0022 8001     		.short	384
 638 0024 00140140 		.word	1073812480
 639 0028 8000     		.short	128
 640 002a 00150140 		.4byte	1073812736
 641 002e 8001     		.short	384
 642 0030 00170140 		.word	1073813248
 643 0034 8001     		.short	384
 644 0036 00190140 		.4byte	1073813760
 645 003a 0003     		.short	768
 646 003c 00400140 		.word	1073823744
 647 0040 000A     		.short	2560
 648 0042 004C0140 		.4byte	1073826816
 649 0046 0002     		.short	512
 650 0048 00500140 		.word	1073827840
 651 004c 2000     		.short	32
 652 004e 0000     		.space	2
ARM GAS  C:\Users\tardi\AppData\Local\Temp\ccIz4Bbo.s 			page 22


 653              		.type	cfg_memcpy_list.5013, %object
 654              		.size	cfg_memcpy_list.5013, 80
 655              	cfg_memcpy_list.5013:
 656 0050 10510140 		.word	1073828112
 657 0054 580D0048 		.word	1207962968
 658 0058 0600     		.short	6
 659 005a 80020140 		.4byte	1073808000
 660 005e 600D0048 		.4byte	1207962976
 661 0062 8000     		.short	128
 662 0064 80060140 		.word	1073809024
 663 0068 E00D0048 		.word	1207963104
 664 006c 8000     		.short	128
 665 006e 800A0140 		.4byte	1073810048
 666 0072 600E0048 		.4byte	1207963232
 667 0076 8000     		.short	128
 668 0078 000E0140 		.word	1073810944
 669 007c E00E0048 		.word	1207963360
 670 0080 8000     		.short	128
 671 0082 80140140 		.4byte	1073812608
 672 0086 600F0048 		.4byte	1207963488
 673 008a 8000     		.short	128
 674 008c 80160140 		.word	1073813120
 675 0090 E00F0048 		.word	1207963616
 676 0094 8000     		.short	128
 677 0096 80180140 		.4byte	1073813632
 678 009a 60100048 		.4byte	1207963744
 679 009e 8000     		.short	128
 680              		.text
 681              	.Letext0:
 682              		.file 2 "c:\\program files (x86)\\cypress\\psoc creator\\4.4\\psoc creator\\import\\gnu\\arm\\5.4.
 683              		.file 3 "Generated_Source\\PSoC5\\cytypes.h"
 684              		.file 4 "Generated_Source\\PSoC5\\CyLib.h"