ARM GAS  C:\Users\tardi\AppData\Local\Temp\ccIoH0TW.s 			page 1


   1              		.syntax unified
   2              		.cpu cortex-m3
   3              		.fpu softvfp
   4              		.eabi_attribute 20, 1
   5              		.eabi_attribute 21, 1
   6              		.eabi_attribute 23, 3
   7              		.eabi_attribute 24, 1
   8              		.eabi_attribute 25, 1
   9              		.eabi_attribute 26, 1
  10              		.eabi_attribute 30, 1
  11              		.eabi_attribute 34, 1
  12              		.eabi_attribute 18, 4
  13              		.thumb
  14              		.syntax unified
  15              		.file	"I2Sfour.c"
  16              		.text
  17              	.Ltext0:
  18              		.cfi_sections	.debug_frame
  19              		.section	.text.I2Sfour_Enable,"ax",%progbits
  20              		.align	2
  21              		.global	I2Sfour_Enable
  22              		.thumb
  23              		.thumb_func
  24              		.type	I2Sfour_Enable, %function
  25              	I2Sfour_Enable:
  26              	.LFB0:
  27              		.file 1 "Generated_Source\\PSoC5\\I2Sfour.c"
   1:Generated_Source\PSoC5/I2Sfour.c **** /*******************************************************************************
   2:Generated_Source\PSoC5/I2Sfour.c **** * File Name: I2Sfour.c
   3:Generated_Source\PSoC5/I2Sfour.c **** * Version 2.70
   4:Generated_Source\PSoC5/I2Sfour.c **** *
   5:Generated_Source\PSoC5/I2Sfour.c **** * Description:
   6:Generated_Source\PSoC5/I2Sfour.c **** *  This file contains the setup, control and status commands for the I2S
   7:Generated_Source\PSoC5/I2Sfour.c **** *  component.
   8:Generated_Source\PSoC5/I2Sfour.c **** *
   9:Generated_Source\PSoC5/I2Sfour.c **** * Note:
  10:Generated_Source\PSoC5/I2Sfour.c **** *
  11:Generated_Source\PSoC5/I2Sfour.c **** ********************************************************************************
  12:Generated_Source\PSoC5/I2Sfour.c **** * Copyright 2008-2015, Cypress Semiconductor Corporation.  All rights reserved.
  13:Generated_Source\PSoC5/I2Sfour.c **** * You may use this file only in accordance with the license, terms, conditions,
  14:Generated_Source\PSoC5/I2Sfour.c **** * disclaimers, and limitations in the end user license agreement accompanying
  15:Generated_Source\PSoC5/I2Sfour.c **** * the software package with which this file was provided.
  16:Generated_Source\PSoC5/I2Sfour.c **** *******************************************************************************/
  17:Generated_Source\PSoC5/I2Sfour.c **** 
  18:Generated_Source\PSoC5/I2Sfour.c **** #include "CyLib.h"
  19:Generated_Source\PSoC5/I2Sfour.c **** #include "I2Sfour.h"
  20:Generated_Source\PSoC5/I2Sfour.c **** 
  21:Generated_Source\PSoC5/I2Sfour.c **** uint8 I2Sfour_initVar = 0u;
  22:Generated_Source\PSoC5/I2Sfour.c **** 
  23:Generated_Source\PSoC5/I2Sfour.c **** 
  24:Generated_Source\PSoC5/I2Sfour.c **** /*******************************************************************************
  25:Generated_Source\PSoC5/I2Sfour.c **** * Function Name: I2Sfour_Enable
  26:Generated_Source\PSoC5/I2Sfour.c **** ********************************************************************************
  27:Generated_Source\PSoC5/I2Sfour.c **** *
  28:Generated_Source\PSoC5/I2Sfour.c **** * Summary:
  29:Generated_Source\PSoC5/I2Sfour.c **** *  Enables I2S interface. Starts the generation of the sck and ws outputs.
  30:Generated_Source\PSoC5/I2Sfour.c **** *  The Tx and Rx directions remain disabled. It is not necessary to call
ARM GAS  C:\Users\tardi\AppData\Local\Temp\ccIoH0TW.s 			page 2


  31:Generated_Source\PSoC5/I2Sfour.c **** *  I2S_Enable() because the I2S_Start() routine calls this function, which is
  32:Generated_Source\PSoC5/I2Sfour.c **** *  the preferred method to begin component operation.
  33:Generated_Source\PSoC5/I2Sfour.c **** *
  34:Generated_Source\PSoC5/I2Sfour.c **** * Parameters:
  35:Generated_Source\PSoC5/I2Sfour.c **** *  None.
  36:Generated_Source\PSoC5/I2Sfour.c **** *
  37:Generated_Source\PSoC5/I2Sfour.c **** * Return:
  38:Generated_Source\PSoC5/I2Sfour.c **** *  None.
  39:Generated_Source\PSoC5/I2Sfour.c **** *
  40:Generated_Source\PSoC5/I2Sfour.c **** *******************************************************************************/
  41:Generated_Source\PSoC5/I2Sfour.c **** void I2Sfour_Enable(void) 
  42:Generated_Source\PSoC5/I2Sfour.c **** {
  28              		.loc 1 42 0
  29              		.cfi_startproc
  30              		@ args = 0, pretend = 0, frame = 0
  31              		@ frame_needed = 0, uses_anonymous_args = 0
  32 0000 08B5     		push	{r3, lr}
  33              		.cfi_def_cfa_offset 8
  34              		.cfi_offset 3, -8
  35              		.cfi_offset 14, -4
  43:Generated_Source\PSoC5/I2Sfour.c ****     uint8 enableInterrupts;
  44:Generated_Source\PSoC5/I2Sfour.c **** 
  45:Generated_Source\PSoC5/I2Sfour.c ****     enableInterrupts = CyEnterCriticalSection();
  36              		.loc 1 45 0
  37 0002 FFF7FEFF 		bl	CyEnterCriticalSection
  38              	.LVL0:
  46:Generated_Source\PSoC5/I2Sfour.c ****     I2Sfour_AUX_CONTROL_REG |= I2Sfour_CNT_START;
  39              		.loc 1 46 0
  40 0006 064A     		ldr	r2, .L3
  41 0008 1378     		ldrb	r3, [r2]	@ zero_extendqisi2
  42 000a 43F02003 		orr	r3, r3, #32
  43 000e 1370     		strb	r3, [r2]
  47:Generated_Source\PSoC5/I2Sfour.c ****     CyExitCriticalSection(enableInterrupts);
  44              		.loc 1 47 0
  45 0010 FFF7FEFF 		bl	CyExitCriticalSection
  46              	.LVL1:
  48:Generated_Source\PSoC5/I2Sfour.c **** 
  49:Generated_Source\PSoC5/I2Sfour.c ****     I2Sfour_CONTROL_REG |= I2Sfour_EN;
  47              		.loc 1 49 0
  48 0014 034A     		ldr	r2, .L3+4
  49 0016 1378     		ldrb	r3, [r2]	@ zero_extendqisi2
  50 0018 43F00403 		orr	r3, r3, #4
  51 001c 1370     		strb	r3, [r2]
  52 001e 08BD     		pop	{r3, pc}
  53              	.L4:
  54              		.align	2
  55              	.L3:
  56 0020 96650040 		.word	1073767830
  57 0024 77650040 		.word	1073767799
  58              		.cfi_endproc
  59              	.LFE0:
  60              		.size	I2Sfour_Enable, .-I2Sfour_Enable
  61              		.section	.text.I2Sfour_Init,"ax",%progbits
  62              		.align	2
  63              		.global	I2Sfour_Init
  64              		.thumb
  65              		.thumb_func
ARM GAS  C:\Users\tardi\AppData\Local\Temp\ccIoH0TW.s 			page 3


  66              		.type	I2Sfour_Init, %function
  67              	I2Sfour_Init:
  68              	.LFB1:
  50:Generated_Source\PSoC5/I2Sfour.c **** }
  51:Generated_Source\PSoC5/I2Sfour.c **** 
  52:Generated_Source\PSoC5/I2Sfour.c **** 
  53:Generated_Source\PSoC5/I2Sfour.c **** /*******************************************************************************
  54:Generated_Source\PSoC5/I2Sfour.c **** * Function Name: I2Sfour_Init
  55:Generated_Source\PSoC5/I2Sfour.c **** ********************************************************************************
  56:Generated_Source\PSoC5/I2Sfour.c **** *
  57:Generated_Source\PSoC5/I2Sfour.c **** * Summary:
  58:Generated_Source\PSoC5/I2Sfour.c **** *  Initializes or restores default I2S configuration provided with customizer.
  59:Generated_Source\PSoC5/I2Sfour.c **** *  It is not necessary to call I2S_Init() because the I2S_Start() routine calls
  60:Generated_Source\PSoC5/I2Sfour.c **** *  this function, which is the preferred method to begin component operation.
  61:Generated_Source\PSoC5/I2Sfour.c **** *
  62:Generated_Source\PSoC5/I2Sfour.c **** * Parameters:
  63:Generated_Source\PSoC5/I2Sfour.c **** *  None.
  64:Generated_Source\PSoC5/I2Sfour.c **** *
  65:Generated_Source\PSoC5/I2Sfour.c **** * Return:
  66:Generated_Source\PSoC5/I2Sfour.c **** *  None.
  67:Generated_Source\PSoC5/I2Sfour.c **** *
  68:Generated_Source\PSoC5/I2Sfour.c **** *******************************************************************************/
  69:Generated_Source\PSoC5/I2Sfour.c **** void I2Sfour_Init(void) 
  70:Generated_Source\PSoC5/I2Sfour.c **** {
  69              		.loc 1 70 0
  70              		.cfi_startproc
  71              		@ args = 0, pretend = 0, frame = 0
  72              		@ frame_needed = 0, uses_anonymous_args = 0
  73              		@ link register save eliminated.
  71:Generated_Source\PSoC5/I2Sfour.c ****     #if (I2Sfour_CLIP_DETECT_ENABLE)
  72:Generated_Source\PSoC5/I2Sfour.c ****         static const uint8 CYCODE I2Sfour_posThresholds[] = {0u};
  73:Generated_Source\PSoC5/I2Sfour.c ****         static const int8  CYCODE I2Sfour_negThresholds[] = {-1};
  74:Generated_Source\PSoC5/I2Sfour.c ****     #endif /* I2Sfour_CLIP_DETECT_ENABLE */
  75:Generated_Source\PSoC5/I2Sfour.c **** 
  76:Generated_Source\PSoC5/I2Sfour.c ****     #if (I2Sfour_DYNAMIC_BIT_RESOLUTION)
  77:Generated_Source\PSoC5/I2Sfour.c ****         (void)I2Sfour_SetDataBits(I2Sfour_DATA_BITS);
  78:Generated_Source\PSoC5/I2Sfour.c ****     #endif /* I2Sfour_DYNAMIC_BIT_RESOLUTION */
  79:Generated_Source\PSoC5/I2Sfour.c **** 
  80:Generated_Source\PSoC5/I2Sfour.c ****     /* Initialize Tx interrupt source selected in customizer */
  81:Generated_Source\PSoC5/I2Sfour.c ****     #if (I2Sfour_TX_DIRECTION_ENABLE)
  82:Generated_Source\PSoC5/I2Sfour.c ****         I2Sfour_SET_TX_INT_MASK(CH0, I2Sfour_TX_INT_SOURCE);
  83:Generated_Source\PSoC5/I2Sfour.c ****         #if (I2Sfour_TX_STEREO_1_PRESENT)
  84:Generated_Source\PSoC5/I2Sfour.c ****             I2Sfour_SET_TX_INT_MASK(CH1, I2Sfour_TX_INT_SOURCE);
  85:Generated_Source\PSoC5/I2Sfour.c ****         #endif /* I2Sfour_TX_STEREO_1_PRESENT */
  86:Generated_Source\PSoC5/I2Sfour.c ****         #if (I2Sfour_TX_STEREO_2_PRESENT)
  87:Generated_Source\PSoC5/I2Sfour.c ****             I2Sfour_SET_TX_INT_MASK(CH2, I2Sfour_TX_INT_SOURCE);
  88:Generated_Source\PSoC5/I2Sfour.c ****         #endif /* I2Sfour_TX_STEREO_2_PRESENT */
  89:Generated_Source\PSoC5/I2Sfour.c ****         #if (I2Sfour_TX_STEREO_3_PRESENT)
  90:Generated_Source\PSoC5/I2Sfour.c ****             I2Sfour_SET_TX_INT_MASK(CH3, I2Sfour_TX_INT_SOURCE);
  91:Generated_Source\PSoC5/I2Sfour.c ****         #endif /* I2Sfour_TX_STEREO_3_PRESENT */
  92:Generated_Source\PSoC5/I2Sfour.c ****         #if (I2Sfour_TX_STEREO_4_PRESENT)
  93:Generated_Source\PSoC5/I2Sfour.c ****             I2Sfour_SET_TX_INT_MASK(CH4, I2Sfour_TX_INT_SOURCE);
  94:Generated_Source\PSoC5/I2Sfour.c ****         #endif /* I2Sfour_TX_STEREO_4_PRESENT */
  95:Generated_Source\PSoC5/I2Sfour.c ****     #endif /* (I2Sfour_TX_DIRECTION_ENABLE) */
  96:Generated_Source\PSoC5/I2Sfour.c ****     
  97:Generated_Source\PSoC5/I2Sfour.c ****     /* Initialize Rx interrupt source and clipping thresholds selected in customizer */
  98:Generated_Source\PSoC5/I2Sfour.c ****     #if (I2Sfour_RX_DIRECTION_ENABLE)
ARM GAS  C:\Users\tardi\AppData\Local\Temp\ccIoH0TW.s 			page 4


  99:Generated_Source\PSoC5/I2Sfour.c ****         I2Sfour_SET_RX_INT_MASK(CH0, I2Sfour_RX_INT_SOURCE);
  74              		.loc 1 99 0
  75 0000 044B     		ldr	r3, .L6
  76 0002 1A78     		ldrb	r2, [r3]	@ zero_extendqisi2
  77 0004 02F0F802 		and	r2, r2, #248
  78 0008 1A70     		strb	r2, [r3]
  79 000a 1A78     		ldrb	r2, [r3]	@ zero_extendqisi2
  80 000c D2B2     		uxtb	r2, r2
  81 000e 1A70     		strb	r2, [r3]
  82 0010 7047     		bx	lr
  83              	.L7:
  84 0012 00BF     		.align	2
  85              	.L6:
  86 0014 85650040 		.word	1073767813
  87              		.cfi_endproc
  88              	.LFE1:
  89              		.size	I2Sfour_Init, .-I2Sfour_Init
  90              		.section	.text.I2Sfour_Start,"ax",%progbits
  91              		.align	2
  92              		.global	I2Sfour_Start
  93              		.thumb
  94              		.thumb_func
  95              		.type	I2Sfour_Start, %function
  96              	I2Sfour_Start:
  97              	.LFB2:
 100:Generated_Source\PSoC5/I2Sfour.c ****         #if (I2Sfour_CLIP_DETECT_ENABLE)
 101:Generated_Source\PSoC5/I2Sfour.c ****             I2Sfour_SET_POS_THRESHOLD(CH0, I2Sfour_posThresholds[I2Sfour_STEREO_0]);
 102:Generated_Source\PSoC5/I2Sfour.c ****             I2Sfour_SET_NEG_THRESHOLD(CH0, I2Sfour_negThresholds[I2Sfour_STEREO_0]);
 103:Generated_Source\PSoC5/I2Sfour.c ****         #endif /* I2Sfour_CLIP_DETECT_ENABLE */
 104:Generated_Source\PSoC5/I2Sfour.c ****         #if (I2Sfour_RX_STEREO_1_PRESENT)
 105:Generated_Source\PSoC5/I2Sfour.c ****             I2Sfour_SET_RX_INT_MASK(CH1, I2Sfour_RX_INT_SOURCE);
 106:Generated_Source\PSoC5/I2Sfour.c ****             #if (I2Sfour_CLIP_DETECT_ENABLE)
 107:Generated_Source\PSoC5/I2Sfour.c ****                 I2Sfour_SET_POS_THRESHOLD(CH1, I2Sfour_posThresholds[I2Sfour_STEREO_1]);
 108:Generated_Source\PSoC5/I2Sfour.c ****                 I2Sfour_SET_NEG_THRESHOLD(CH1, I2Sfour_negThresholds[I2Sfour_STEREO_1]);
 109:Generated_Source\PSoC5/I2Sfour.c ****             #endif /* I2Sfour_CLIP_DETECT_ENABLE */
 110:Generated_Source\PSoC5/I2Sfour.c ****         #endif /* I2Sfour_RX_STEREO_1_PRESENT */
 111:Generated_Source\PSoC5/I2Sfour.c ****         #if (I2Sfour_RX_STEREO_2_PRESENT)
 112:Generated_Source\PSoC5/I2Sfour.c ****             I2Sfour_SET_RX_INT_MASK(CH2, I2Sfour_RX_INT_SOURCE);
 113:Generated_Source\PSoC5/I2Sfour.c ****             #if (I2Sfour_CLIP_DETECT_ENABLE)
 114:Generated_Source\PSoC5/I2Sfour.c ****                 I2Sfour_SET_POS_THRESHOLD(CH2, I2Sfour_posThresholds[I2Sfour_STEREO_2]);
 115:Generated_Source\PSoC5/I2Sfour.c ****                 I2Sfour_SET_NEG_THRESHOLD(CH2, I2Sfour_negThresholds[I2Sfour_STEREO_2]);
 116:Generated_Source\PSoC5/I2Sfour.c ****             #endif /* I2Sfour_CLIP_DETECT_ENABLE */
 117:Generated_Source\PSoC5/I2Sfour.c ****         #endif /* I2Sfour_RX_STEREO_2_PRESENT */
 118:Generated_Source\PSoC5/I2Sfour.c ****         #if (I2Sfour_RX_STEREO_3_PRESENT)
 119:Generated_Source\PSoC5/I2Sfour.c ****             I2Sfour_SET_RX_INT_MASK(CH3, I2Sfour_RX_INT_SOURCE);
 120:Generated_Source\PSoC5/I2Sfour.c ****             #if (I2Sfour_CLIP_DETECT_ENABLE)
 121:Generated_Source\PSoC5/I2Sfour.c ****                 I2Sfour_SET_POS_THRESHOLD(CH3, I2Sfour_posThresholds[I2Sfour_STEREO_3]);
 122:Generated_Source\PSoC5/I2Sfour.c ****                 I2Sfour_SET_NEG_THRESHOLD(CH3, I2Sfour_negThresholds[I2Sfour_STEREO_3]);
 123:Generated_Source\PSoC5/I2Sfour.c ****             #endif /* I2Sfour_CLIP_DETECT_ENABLE */
 124:Generated_Source\PSoC5/I2Sfour.c ****         #endif /* I2Sfour_RX_STEREO_3_PRESENT */
 125:Generated_Source\PSoC5/I2Sfour.c ****         #if (I2Sfour_RX_STEREO_4_PRESENT)
 126:Generated_Source\PSoC5/I2Sfour.c ****             I2Sfour_SET_RX_INT_MASK(CH4, I2Sfour_RX_INT_SOURCE);
 127:Generated_Source\PSoC5/I2Sfour.c ****             #if (I2Sfour_CLIP_DETECT_ENABLE)
 128:Generated_Source\PSoC5/I2Sfour.c ****                 I2Sfour_SET_POS_THRESHOLD(CH4, I2Sfour_posThresholds[I2Sfour_STEREO_4]);
 129:Generated_Source\PSoC5/I2Sfour.c ****                 I2Sfour_SET_NEG_THRESHOLD(CH4, I2Sfour_negThresholds[I2Sfour_STEREO_4]);
 130:Generated_Source\PSoC5/I2Sfour.c ****             #endif /* I2Sfour_CLIP_DETECT_ENABLE */
 131:Generated_Source\PSoC5/I2Sfour.c ****         #endif /* I2Sfour_RX_STEREO_4_PRESENT */
ARM GAS  C:\Users\tardi\AppData\Local\Temp\ccIoH0TW.s 			page 5


 132:Generated_Source\PSoC5/I2Sfour.c ****     #endif /* (I2Sfour_RX_DIRECTION_ENABLE) */
 133:Generated_Source\PSoC5/I2Sfour.c **** }
 134:Generated_Source\PSoC5/I2Sfour.c **** 
 135:Generated_Source\PSoC5/I2Sfour.c **** 
 136:Generated_Source\PSoC5/I2Sfour.c **** /*******************************************************************************
 137:Generated_Source\PSoC5/I2Sfour.c **** * Function Name: I2Sfour_Start
 138:Generated_Source\PSoC5/I2Sfour.c **** ********************************************************************************
 139:Generated_Source\PSoC5/I2Sfour.c **** *
 140:Generated_Source\PSoC5/I2Sfour.c **** * Summary:
 141:Generated_Source\PSoC5/I2Sfour.c **** *  Starts the I2S interface. Starts the generation of the sck and ws outputs.
 142:Generated_Source\PSoC5/I2Sfour.c **** *  The Tx and Rx directions remain disabled.
 143:Generated_Source\PSoC5/I2Sfour.c **** *
 144:Generated_Source\PSoC5/I2Sfour.c **** * Parameters:
 145:Generated_Source\PSoC5/I2Sfour.c **** *  None.
 146:Generated_Source\PSoC5/I2Sfour.c **** *
 147:Generated_Source\PSoC5/I2Sfour.c **** * Return:
 148:Generated_Source\PSoC5/I2Sfour.c **** *  None.
 149:Generated_Source\PSoC5/I2Sfour.c **** *
 150:Generated_Source\PSoC5/I2Sfour.c **** * Global Variables:
 151:Generated_Source\PSoC5/I2Sfour.c **** *  I2Sfour_initVar - used to check initial configuration, modified on
 152:Generated_Source\PSoC5/I2Sfour.c **** *  first function call.
 153:Generated_Source\PSoC5/I2Sfour.c **** *
 154:Generated_Source\PSoC5/I2Sfour.c **** * Reentrant:
 155:Generated_Source\PSoC5/I2Sfour.c **** *  No.
 156:Generated_Source\PSoC5/I2Sfour.c **** *
 157:Generated_Source\PSoC5/I2Sfour.c **** *******************************************************************************/
 158:Generated_Source\PSoC5/I2Sfour.c **** void I2Sfour_Start(void) 
 159:Generated_Source\PSoC5/I2Sfour.c **** {
  98              		.loc 1 159 0
  99              		.cfi_startproc
 100              		@ args = 0, pretend = 0, frame = 0
 101              		@ frame_needed = 0, uses_anonymous_args = 0
 102 0000 08B5     		push	{r3, lr}
 103              		.cfi_def_cfa_offset 8
 104              		.cfi_offset 3, -8
 105              		.cfi_offset 14, -4
 160:Generated_Source\PSoC5/I2Sfour.c ****     if(0u == I2Sfour_initVar)
 106              		.loc 1 160 0
 107 0002 054B     		ldr	r3, .L11
 108 0004 1B78     		ldrb	r3, [r3]	@ zero_extendqisi2
 109 0006 23B9     		cbnz	r3, .L9
 161:Generated_Source\PSoC5/I2Sfour.c ****     {
 162:Generated_Source\PSoC5/I2Sfour.c ****         I2Sfour_Init();
 110              		.loc 1 162 0
 111 0008 FFF7FEFF 		bl	I2Sfour_Init
 112              	.LVL2:
 163:Generated_Source\PSoC5/I2Sfour.c ****         I2Sfour_initVar = 1u;
 113              		.loc 1 163 0
 114 000c 0122     		movs	r2, #1
 115 000e 024B     		ldr	r3, .L11
 116 0010 1A70     		strb	r2, [r3]
 117              	.L9:
 164:Generated_Source\PSoC5/I2Sfour.c ****     }
 165:Generated_Source\PSoC5/I2Sfour.c **** 
 166:Generated_Source\PSoC5/I2Sfour.c ****     I2Sfour_Enable();
 118              		.loc 1 166 0
 119 0012 FFF7FEFF 		bl	I2Sfour_Enable
ARM GAS  C:\Users\tardi\AppData\Local\Temp\ccIoH0TW.s 			page 6


 120              	.LVL3:
 121 0016 08BD     		pop	{r3, pc}
 122              	.L12:
 123              		.align	2
 124              	.L11:
 125 0018 00000000 		.word	.LANCHOR0
 126              		.cfi_endproc
 127              	.LFE2:
 128              		.size	I2Sfour_Start, .-I2Sfour_Start
 129              		.section	.text.I2Sfour_EnableRx,"ax",%progbits
 130              		.align	2
 131              		.global	I2Sfour_EnableRx
 132              		.thumb
 133              		.thumb_func
 134              		.type	I2Sfour_EnableRx, %function
 135              	I2Sfour_EnableRx:
 136              	.LFB4:
 167:Generated_Source\PSoC5/I2Sfour.c **** }
 168:Generated_Source\PSoC5/I2Sfour.c **** 
 169:Generated_Source\PSoC5/I2Sfour.c **** 
 170:Generated_Source\PSoC5/I2Sfour.c **** /*******************************************************************************
 171:Generated_Source\PSoC5/I2Sfour.c **** * Function Name: I2Sfour_Stop
 172:Generated_Source\PSoC5/I2Sfour.c **** ********************************************************************************
 173:Generated_Source\PSoC5/I2Sfour.c **** *
 174:Generated_Source\PSoC5/I2Sfour.c **** * Summary:
 175:Generated_Source\PSoC5/I2Sfour.c **** *  Disables the I2S interface. The sck and ws outputs are set to 0. The Tx and
 176:Generated_Source\PSoC5/I2Sfour.c **** *  Rx directions are disabled and their FIFOs are cleared.
 177:Generated_Source\PSoC5/I2Sfour.c **** *
 178:Generated_Source\PSoC5/I2Sfour.c **** * Parameters:
 179:Generated_Source\PSoC5/I2Sfour.c **** *  None.
 180:Generated_Source\PSoC5/I2Sfour.c **** *
 181:Generated_Source\PSoC5/I2Sfour.c **** * Return:
 182:Generated_Source\PSoC5/I2Sfour.c **** *  None.
 183:Generated_Source\PSoC5/I2Sfour.c **** *
 184:Generated_Source\PSoC5/I2Sfour.c **** *******************************************************************************/
 185:Generated_Source\PSoC5/I2Sfour.c **** void I2Sfour_Stop(void) 
 186:Generated_Source\PSoC5/I2Sfour.c **** {
 187:Generated_Source\PSoC5/I2Sfour.c ****     uint8 enableInterrupts;
 188:Generated_Source\PSoC5/I2Sfour.c **** 
 189:Generated_Source\PSoC5/I2Sfour.c ****     I2Sfour_CONTROL_REG &= (uint8)~I2Sfour_EN;
 190:Generated_Source\PSoC5/I2Sfour.c **** 
 191:Generated_Source\PSoC5/I2Sfour.c ****     enableInterrupts = CyEnterCriticalSection();
 192:Generated_Source\PSoC5/I2Sfour.c ****     I2Sfour_AUX_CONTROL_REG &= (uint8)~I2Sfour_CNT_START;
 193:Generated_Source\PSoC5/I2Sfour.c ****     CyExitCriticalSection(enableInterrupts);
 194:Generated_Source\PSoC5/I2Sfour.c **** 
 195:Generated_Source\PSoC5/I2Sfour.c ****     /* Clear counter value to force reload when component is enabled */
 196:Generated_Source\PSoC5/I2Sfour.c ****     I2Sfour_CNT_COUNT_REG = 0u;
 197:Generated_Source\PSoC5/I2Sfour.c **** 
 198:Generated_Source\PSoC5/I2Sfour.c ****     #if (I2Sfour_TX_DIRECTION_ENABLE)
 199:Generated_Source\PSoC5/I2Sfour.c ****         I2Sfour_DisableTx();
 200:Generated_Source\PSoC5/I2Sfour.c ****         I2Sfour_ClearTxFIFO();
 201:Generated_Source\PSoC5/I2Sfour.c ****     #endif /* (I2Sfour_TX_DIRECTION_ENABLE) */
 202:Generated_Source\PSoC5/I2Sfour.c ****     
 203:Generated_Source\PSoC5/I2Sfour.c ****     #if (I2Sfour_RX_DIRECTION_ENABLE)
 204:Generated_Source\PSoC5/I2Sfour.c ****         I2Sfour_DisableRx();
 205:Generated_Source\PSoC5/I2Sfour.c ****         I2Sfour_ClearRxFIFO();
 206:Generated_Source\PSoC5/I2Sfour.c ****     #endif /* (I2Sfour_RX_DIRECTION_ENABLE) */
ARM GAS  C:\Users\tardi\AppData\Local\Temp\ccIoH0TW.s 			page 7


 207:Generated_Source\PSoC5/I2Sfour.c **** }
 208:Generated_Source\PSoC5/I2Sfour.c **** 
 209:Generated_Source\PSoC5/I2Sfour.c **** #if (I2Sfour_DYNAMIC_BIT_RESOLUTION)
 210:Generated_Source\PSoC5/I2Sfour.c ****     /*******************************************************************************
 211:Generated_Source\PSoC5/I2Sfour.c ****     * Function Name: I2Sfour_SetDataBits
 212:Generated_Source\PSoC5/I2Sfour.c ****     ********************************************************************************
 213:Generated_Source\PSoC5/I2Sfour.c ****     *
 214:Generated_Source\PSoC5/I2Sfour.c ****     * Summary:
 215:Generated_Source\PSoC5/I2Sfour.c ****     *  Sets the number of data bits for each sample. The component must be stopped
 216:Generated_Source\PSoC5/I2Sfour.c ****     *  before calling this API.
 217:Generated_Source\PSoC5/I2Sfour.c ****     *
 218:Generated_Source\PSoC5/I2Sfour.c ****     * Parameters:
 219:Generated_Source\PSoC5/I2Sfour.c ****     *  dataBits: the number of data bits for each sample. Valid values - 8/16/24/32.
 220:Generated_Source\PSoC5/I2Sfour.c ****     *  If Tx or Rx byte swapping is enabled, valid values are 16 and 24.
 221:Generated_Source\PSoC5/I2Sfour.c ****     *
 222:Generated_Source\PSoC5/I2Sfour.c ****     * Return:
 223:Generated_Source\PSoC5/I2Sfour.c ****     *  CYRET_SUCCESS  : Operation is successful
 224:Generated_Source\PSoC5/I2Sfour.c ****     *  CYRET_BAD_PARAM: Invalid parameter value
 225:Generated_Source\PSoC5/I2Sfour.c ****     *
 226:Generated_Source\PSoC5/I2Sfour.c ****     * Side effects:
 227:Generated_Source\PSoC5/I2Sfour.c ****     *  Calling this API while the component is operating may cause unexpected
 228:Generated_Source\PSoC5/I2Sfour.c ****     *  behavior.
 229:Generated_Source\PSoC5/I2Sfour.c ****     *
 230:Generated_Source\PSoC5/I2Sfour.c ****     *******************************************************************************/
 231:Generated_Source\PSoC5/I2Sfour.c ****     cystatus I2Sfour_SetDataBits(uint8 dataBits)   
 232:Generated_Source\PSoC5/I2Sfour.c ****     {
 233:Generated_Source\PSoC5/I2Sfour.c ****         cystatus status;
 234:Generated_Source\PSoC5/I2Sfour.c **** 
 235:Generated_Source\PSoC5/I2Sfour.c ****         CYASSERT((dataBits >= I2Sfour_MIN_DATA_BITS) && (dataBits <= I2Sfour_MAX_DATA_BITS));
 236:Generated_Source\PSoC5/I2Sfour.c **** 
 237:Generated_Source\PSoC5/I2Sfour.c ****         status = CYRET_SUCCESS;
 238:Generated_Source\PSoC5/I2Sfour.c ****         /* The component must be stopped prior calling this API. Therefore
 239:Generated_Source\PSoC5/I2Sfour.c ****         * all the control bits except the bits modified are zeros.
 240:Generated_Source\PSoC5/I2Sfour.c ****         */
 241:Generated_Source\PSoC5/I2Sfour.c ****         switch(dataBits)
 242:Generated_Source\PSoC5/I2Sfour.c ****         {
 243:Generated_Source\PSoC5/I2Sfour.c ****         case I2Sfour_8BIT_DATA:
 244:Generated_Source\PSoC5/I2Sfour.c ****             I2Sfour_CONTROL_REG = I2Sfour_8BIT_MODE;
 245:Generated_Source\PSoC5/I2Sfour.c ****             break;
 246:Generated_Source\PSoC5/I2Sfour.c ****         case I2Sfour_16BIT_DATA:
 247:Generated_Source\PSoC5/I2Sfour.c ****             I2Sfour_CONTROL_REG = I2Sfour_16BIT_MODE;
 248:Generated_Source\PSoC5/I2Sfour.c ****             break;
 249:Generated_Source\PSoC5/I2Sfour.c ****         case I2Sfour_24BIT_DATA:
 250:Generated_Source\PSoC5/I2Sfour.c ****             I2Sfour_CONTROL_REG = I2Sfour_24BIT_MODE;
 251:Generated_Source\PSoC5/I2Sfour.c ****             break;
 252:Generated_Source\PSoC5/I2Sfour.c ****         case I2Sfour_32BIT_DATA:
 253:Generated_Source\PSoC5/I2Sfour.c ****             I2Sfour_CONTROL_REG = I2Sfour_32BIT_MODE;
 254:Generated_Source\PSoC5/I2Sfour.c ****             break;
 255:Generated_Source\PSoC5/I2Sfour.c ****         default: status = CYRET_BAD_PARAM;
 256:Generated_Source\PSoC5/I2Sfour.c ****             break;
 257:Generated_Source\PSoC5/I2Sfour.c ****         }
 258:Generated_Source\PSoC5/I2Sfour.c **** 
 259:Generated_Source\PSoC5/I2Sfour.c ****         return (status);
 260:Generated_Source\PSoC5/I2Sfour.c ****     }
 261:Generated_Source\PSoC5/I2Sfour.c **** 
 262:Generated_Source\PSoC5/I2Sfour.c **** #endif /* I2Sfour_DYNAMIC_BIT_RESOLUTION */
 263:Generated_Source\PSoC5/I2Sfour.c **** 
ARM GAS  C:\Users\tardi\AppData\Local\Temp\ccIoH0TW.s 			page 8


 264:Generated_Source\PSoC5/I2Sfour.c **** #if(I2Sfour_TX_DIRECTION_ENABLE)
 265:Generated_Source\PSoC5/I2Sfour.c ****     /*******************************************************************************
 266:Generated_Source\PSoC5/I2Sfour.c ****     * Function Name: I2Sfour_EnableTx
 267:Generated_Source\PSoC5/I2Sfour.c ****     ********************************************************************************
 268:Generated_Source\PSoC5/I2Sfour.c ****     *
 269:Generated_Source\PSoC5/I2Sfour.c ****     * Summary:
 270:Generated_Source\PSoC5/I2Sfour.c ****     *  Enables the Tx direction of the I2S interface.  At the next word
 271:Generated_Source\PSoC5/I2Sfour.c ****     *  select falling edge transmission will begin.
 272:Generated_Source\PSoC5/I2Sfour.c ****     *
 273:Generated_Source\PSoC5/I2Sfour.c ****     * Parameters:
 274:Generated_Source\PSoC5/I2Sfour.c ****     *  None.
 275:Generated_Source\PSoC5/I2Sfour.c ****     *
 276:Generated_Source\PSoC5/I2Sfour.c ****     * Return:
 277:Generated_Source\PSoC5/I2Sfour.c ****     *  None.
 278:Generated_Source\PSoC5/I2Sfour.c ****     *
 279:Generated_Source\PSoC5/I2Sfour.c ****     *******************************************************************************/
 280:Generated_Source\PSoC5/I2Sfour.c ****     void I2Sfour_EnableTx(void) 
 281:Generated_Source\PSoC5/I2Sfour.c ****     {
 282:Generated_Source\PSoC5/I2Sfour.c ****         uint8 enableInterrupts;
 283:Generated_Source\PSoC5/I2Sfour.c **** 
 284:Generated_Source\PSoC5/I2Sfour.c ****         enableInterrupts = CyEnterCriticalSection();
 285:Generated_Source\PSoC5/I2Sfour.c ****         I2Sfour_TX_STS0_1_ACTL_REG |= I2Sfour_INT_EN;
 286:Generated_Source\PSoC5/I2Sfour.c ****         #ifdef I2Sfour_TX_STS2_3_ACTL_REG
 287:Generated_Source\PSoC5/I2Sfour.c ****             I2Sfour_TX_STS2_3_ACTL_REG |= I2Sfour_INT_EN;
 288:Generated_Source\PSoC5/I2Sfour.c ****         #endif /* I2Sfour_TX_STS2_3_ACTL_REG */
 289:Generated_Source\PSoC5/I2Sfour.c ****         #ifdef I2Sfour_TX_STS4_ACTL_REG
 290:Generated_Source\PSoC5/I2Sfour.c ****             I2Sfour_TX_STS4_ACTL_REG |= I2Sfour_INT_EN;
 291:Generated_Source\PSoC5/I2Sfour.c ****         #endif /* I2Sfour_TX_STS4_ACTL_REG */
 292:Generated_Source\PSoC5/I2Sfour.c ****         CyExitCriticalSection(enableInterrupts);
 293:Generated_Source\PSoC5/I2Sfour.c ****         
 294:Generated_Source\PSoC5/I2Sfour.c ****         I2Sfour_CONTROL_REG |= I2Sfour_TX_EN;
 295:Generated_Source\PSoC5/I2Sfour.c ****     }
 296:Generated_Source\PSoC5/I2Sfour.c **** 
 297:Generated_Source\PSoC5/I2Sfour.c **** 
 298:Generated_Source\PSoC5/I2Sfour.c ****     /*******************************************************************************
 299:Generated_Source\PSoC5/I2Sfour.c ****     * Function Name: I2Sfour_DisableTx
 300:Generated_Source\PSoC5/I2Sfour.c ****     ********************************************************************************
 301:Generated_Source\PSoC5/I2Sfour.c ****     *
 302:Generated_Source\PSoC5/I2Sfour.c ****     * Summary:
 303:Generated_Source\PSoC5/I2Sfour.c ****     *  Disables the Tx direction of the I2S interface.  At the next word
 304:Generated_Source\PSoC5/I2Sfour.c ****     *  select falling edge transmission of data will stop and a constant 0 value
 305:Generated_Source\PSoC5/I2Sfour.c ****     *  will be transmitted.
 306:Generated_Source\PSoC5/I2Sfour.c ****     *
 307:Generated_Source\PSoC5/I2Sfour.c ****     * Parameters:
 308:Generated_Source\PSoC5/I2Sfour.c ****     *  None.
 309:Generated_Source\PSoC5/I2Sfour.c ****     *
 310:Generated_Source\PSoC5/I2Sfour.c ****     * Return:
 311:Generated_Source\PSoC5/I2Sfour.c ****     *  None.
 312:Generated_Source\PSoC5/I2Sfour.c ****     *
 313:Generated_Source\PSoC5/I2Sfour.c ****     *******************************************************************************/
 314:Generated_Source\PSoC5/I2Sfour.c ****     void I2Sfour_DisableTx(void) 
 315:Generated_Source\PSoC5/I2Sfour.c ****     {
 316:Generated_Source\PSoC5/I2Sfour.c ****         uint8 enableInterrupts;
 317:Generated_Source\PSoC5/I2Sfour.c **** 
 318:Generated_Source\PSoC5/I2Sfour.c ****         I2Sfour_CONTROL_REG &= (uint8)~I2Sfour_TX_EN;
 319:Generated_Source\PSoC5/I2Sfour.c **** 
 320:Generated_Source\PSoC5/I2Sfour.c ****         enableInterrupts = CyEnterCriticalSection();
ARM GAS  C:\Users\tardi\AppData\Local\Temp\ccIoH0TW.s 			page 9


 321:Generated_Source\PSoC5/I2Sfour.c ****         I2Sfour_TX_STS0_1_ACTL_REG &= (uint8)~I2Sfour_INT_EN;
 322:Generated_Source\PSoC5/I2Sfour.c ****         #ifdef I2Sfour_TX_STS2_3_ACTL_REG
 323:Generated_Source\PSoC5/I2Sfour.c ****             I2Sfour_TX_STS2_3_ACTL_REG &= (uint8)~I2Sfour_INT_EN;
 324:Generated_Source\PSoC5/I2Sfour.c ****         #endif /* I2Sfour_TX_STS2_3_ACTL_REG */
 325:Generated_Source\PSoC5/I2Sfour.c ****         #ifdef I2Sfour_TX_STS4_ACTL_REG
 326:Generated_Source\PSoC5/I2Sfour.c ****             I2Sfour_TX_STS4_ACTL_REG &= (uint8)~I2Sfour_INT_EN;
 327:Generated_Source\PSoC5/I2Sfour.c ****         #endif /* I2Sfour_TX_STS4_ACTL_REG */
 328:Generated_Source\PSoC5/I2Sfour.c ****         CyExitCriticalSection(enableInterrupts);
 329:Generated_Source\PSoC5/I2Sfour.c ****     }
 330:Generated_Source\PSoC5/I2Sfour.c **** 
 331:Generated_Source\PSoC5/I2Sfour.c **** 
 332:Generated_Source\PSoC5/I2Sfour.c ****     /*******************************************************************************
 333:Generated_Source\PSoC5/I2Sfour.c ****     * Function Name: I2Sfour_ClearTxFIFO
 334:Generated_Source\PSoC5/I2Sfour.c ****     ********************************************************************************
 335:Generated_Source\PSoC5/I2Sfour.c ****     *
 336:Generated_Source\PSoC5/I2Sfour.c ****     * Summary:
 337:Generated_Source\PSoC5/I2Sfour.c ****     *  Clears out the FIFOs for all Tx channels. Any data present in the FIFO will
 338:Generated_Source\PSoC5/I2Sfour.c ****     *  not be sent. This call should be made only when the Tx direction is disabled.
 339:Generated_Source\PSoC5/I2Sfour.c ****     *
 340:Generated_Source\PSoC5/I2Sfour.c ****     * Parameters:
 341:Generated_Source\PSoC5/I2Sfour.c ****     *  None.
 342:Generated_Source\PSoC5/I2Sfour.c ****     *
 343:Generated_Source\PSoC5/I2Sfour.c ****     * Return:
 344:Generated_Source\PSoC5/I2Sfour.c ****     *  None.
 345:Generated_Source\PSoC5/I2Sfour.c ****     *
 346:Generated_Source\PSoC5/I2Sfour.c ****     *******************************************************************************/
 347:Generated_Source\PSoC5/I2Sfour.c ****     void I2Sfour_ClearTxFIFO(void) 
 348:Generated_Source\PSoC5/I2Sfour.c ****     {
 349:Generated_Source\PSoC5/I2Sfour.c ****         uint8 enableInterrupts;
 350:Generated_Source\PSoC5/I2Sfour.c **** 
 351:Generated_Source\PSoC5/I2Sfour.c ****         enableInterrupts = CyEnterCriticalSection();
 352:Generated_Source\PSoC5/I2Sfour.c ****         I2Sfour_CLEAR_TX_FIFO(CH0);
 353:Generated_Source\PSoC5/I2Sfour.c ****         #if (I2Sfour_TX_STEREO_1_PRESENT)
 354:Generated_Source\PSoC5/I2Sfour.c ****             I2Sfour_CLEAR_TX_FIFO(CH1);
 355:Generated_Source\PSoC5/I2Sfour.c ****         #endif /* I2Sfour_TX_STEREO_1_PRESENT */
 356:Generated_Source\PSoC5/I2Sfour.c ****         #if (I2Sfour_TX_STEREO_2_PRESENT)
 357:Generated_Source\PSoC5/I2Sfour.c ****             I2Sfour_CLEAR_TX_FIFO(CH2);
 358:Generated_Source\PSoC5/I2Sfour.c ****         #endif /* I2Sfour_TX_STEREO_2_PRESENT */
 359:Generated_Source\PSoC5/I2Sfour.c ****         #if (I2Sfour_TX_STEREO_3_PRESENT)
 360:Generated_Source\PSoC5/I2Sfour.c ****             I2Sfour_CLEAR_TX_FIFO(CH3);
 361:Generated_Source\PSoC5/I2Sfour.c ****         #endif /* I2Sfour_TX_STEREO_3_PRESENT */
 362:Generated_Source\PSoC5/I2Sfour.c ****         #if (I2Sfour_TX_STEREO_4_PRESENT)
 363:Generated_Source\PSoC5/I2Sfour.c ****             I2Sfour_CLEAR_TX_FIFO(CH4);
 364:Generated_Source\PSoC5/I2Sfour.c ****         #endif /* I2Sfour_TX_STEREO_4_PRESENT */
 365:Generated_Source\PSoC5/I2Sfour.c ****         CyExitCriticalSection(enableInterrupts);
 366:Generated_Source\PSoC5/I2Sfour.c ****     }
 367:Generated_Source\PSoC5/I2Sfour.c **** 
 368:Generated_Source\PSoC5/I2Sfour.c **** #endif /* (I2Sfour_TX_DIRECTION_ENABLE) */
 369:Generated_Source\PSoC5/I2Sfour.c **** 
 370:Generated_Source\PSoC5/I2Sfour.c **** 
 371:Generated_Source\PSoC5/I2Sfour.c **** #if(I2Sfour_RX_DIRECTION_ENABLE)
 372:Generated_Source\PSoC5/I2Sfour.c ****     /*******************************************************************************
 373:Generated_Source\PSoC5/I2Sfour.c ****     * Function Name: I2Sfour_EnableRx
 374:Generated_Source\PSoC5/I2Sfour.c ****     ********************************************************************************
 375:Generated_Source\PSoC5/I2Sfour.c ****     *
 376:Generated_Source\PSoC5/I2Sfour.c ****     * Summary:
 377:Generated_Source\PSoC5/I2Sfour.c ****     *  Enables the Rx direction of the I2S interface.  At the next word
ARM GAS  C:\Users\tardi\AppData\Local\Temp\ccIoH0TW.s 			page 10


 378:Generated_Source\PSoC5/I2Sfour.c ****     *  select falling edge reception of data will begin.
 379:Generated_Source\PSoC5/I2Sfour.c ****     *
 380:Generated_Source\PSoC5/I2Sfour.c ****     * Parameters:
 381:Generated_Source\PSoC5/I2Sfour.c ****     *  None.
 382:Generated_Source\PSoC5/I2Sfour.c ****     *
 383:Generated_Source\PSoC5/I2Sfour.c ****     * Return:
 384:Generated_Source\PSoC5/I2Sfour.c ****     *  None.
 385:Generated_Source\PSoC5/I2Sfour.c ****     *
 386:Generated_Source\PSoC5/I2Sfour.c ****     *******************************************************************************/
 387:Generated_Source\PSoC5/I2Sfour.c ****     void I2Sfour_EnableRx(void) 
 388:Generated_Source\PSoC5/I2Sfour.c ****     {
 137              		.loc 1 388 0
 138              		.cfi_startproc
 139              		@ args = 0, pretend = 0, frame = 0
 140              		@ frame_needed = 0, uses_anonymous_args = 0
 141 0000 08B5     		push	{r3, lr}
 142              		.cfi_def_cfa_offset 8
 143              		.cfi_offset 3, -8
 144              		.cfi_offset 14, -4
 389:Generated_Source\PSoC5/I2Sfour.c ****         uint8 enableInterrupts;
 390:Generated_Source\PSoC5/I2Sfour.c **** 
 391:Generated_Source\PSoC5/I2Sfour.c ****         enableInterrupts = CyEnterCriticalSection();
 145              		.loc 1 391 0
 146 0002 FFF7FEFF 		bl	CyEnterCriticalSection
 147              	.LVL4:
 392:Generated_Source\PSoC5/I2Sfour.c ****         I2Sfour_RX_STS0_1_ACTL_REG |= I2Sfour_INT_EN;
 148              		.loc 1 392 0
 149 0006 064A     		ldr	r2, .L15
 150 0008 1378     		ldrb	r3, [r2]	@ zero_extendqisi2
 151 000a 43F01003 		orr	r3, r3, #16
 152 000e 1370     		strb	r3, [r2]
 393:Generated_Source\PSoC5/I2Sfour.c ****         #ifdef I2Sfour_RX_STS2_3_ACTL_REG
 394:Generated_Source\PSoC5/I2Sfour.c ****             I2Sfour_RX_STS2_3_ACTL_REG |= I2Sfour_INT_EN;
 395:Generated_Source\PSoC5/I2Sfour.c ****         #endif /* I2Sfour_RX_STS2_3_ACTL_REG */
 396:Generated_Source\PSoC5/I2Sfour.c ****         #ifdef I2Sfour_RX_STS4_ACTL_REG
 397:Generated_Source\PSoC5/I2Sfour.c ****             I2Sfour_RX_STS4_ACTL_REG |= I2Sfour_INT_EN;
 398:Generated_Source\PSoC5/I2Sfour.c ****         #endif /* I2Sfour_RX_STS4_ACTL_REG */
 399:Generated_Source\PSoC5/I2Sfour.c ****         CyExitCriticalSection(enableInterrupts);
 153              		.loc 1 399 0
 154 0010 FFF7FEFF 		bl	CyExitCriticalSection
 155              	.LVL5:
 400:Generated_Source\PSoC5/I2Sfour.c ****         
 401:Generated_Source\PSoC5/I2Sfour.c ****         I2Sfour_CONTROL_REG |= I2Sfour_RX_EN;
 156              		.loc 1 401 0
 157 0014 034A     		ldr	r2, .L15+4
 158 0016 1378     		ldrb	r3, [r2]	@ zero_extendqisi2
 159 0018 43F00203 		orr	r3, r3, #2
 160 001c 1370     		strb	r3, [r2]
 161 001e 08BD     		pop	{r3, pc}
 162              	.L16:
 163              		.align	2
 164              	.L15:
 165 0020 95650040 		.word	1073767829
 166 0024 77650040 		.word	1073767799
 167              		.cfi_endproc
 168              	.LFE4:
 169              		.size	I2Sfour_EnableRx, .-I2Sfour_EnableRx
ARM GAS  C:\Users\tardi\AppData\Local\Temp\ccIoH0TW.s 			page 11


 170              		.section	.text.I2Sfour_DisableRx,"ax",%progbits
 171              		.align	2
 172              		.global	I2Sfour_DisableRx
 173              		.thumb
 174              		.thumb_func
 175              		.type	I2Sfour_DisableRx, %function
 176              	I2Sfour_DisableRx:
 177              	.LFB5:
 402:Generated_Source\PSoC5/I2Sfour.c ****     }
 403:Generated_Source\PSoC5/I2Sfour.c **** 
 404:Generated_Source\PSoC5/I2Sfour.c **** 
 405:Generated_Source\PSoC5/I2Sfour.c ****     /*******************************************************************************
 406:Generated_Source\PSoC5/I2Sfour.c ****     * Function Name: I2Sfour_DisableRx
 407:Generated_Source\PSoC5/I2Sfour.c ****     ********************************************************************************
 408:Generated_Source\PSoC5/I2Sfour.c ****     *
 409:Generated_Source\PSoC5/I2Sfour.c ****     * Summary:
 410:Generated_Source\PSoC5/I2Sfour.c ****     *  Disables the Rx direction of the I2S interface.
 411:Generated_Source\PSoC5/I2Sfour.c ****     *
 412:Generated_Source\PSoC5/I2Sfour.c ****     * Parameters:
 413:Generated_Source\PSoC5/I2Sfour.c ****     *  None.
 414:Generated_Source\PSoC5/I2Sfour.c ****     *
 415:Generated_Source\PSoC5/I2Sfour.c ****     * Return:
 416:Generated_Source\PSoC5/I2Sfour.c ****     *  None.
 417:Generated_Source\PSoC5/I2Sfour.c ****     *
 418:Generated_Source\PSoC5/I2Sfour.c ****     *******************************************************************************/
 419:Generated_Source\PSoC5/I2Sfour.c ****     void I2Sfour_DisableRx(void) 
 420:Generated_Source\PSoC5/I2Sfour.c ****     {
 178              		.loc 1 420 0
 179              		.cfi_startproc
 180              		@ args = 0, pretend = 0, frame = 0
 181              		@ frame_needed = 0, uses_anonymous_args = 0
 182 0000 08B5     		push	{r3, lr}
 183              		.cfi_def_cfa_offset 8
 184              		.cfi_offset 3, -8
 185              		.cfi_offset 14, -4
 421:Generated_Source\PSoC5/I2Sfour.c ****         uint8 enableInterrupts;
 422:Generated_Source\PSoC5/I2Sfour.c **** 
 423:Generated_Source\PSoC5/I2Sfour.c ****         I2Sfour_CONTROL_REG &= (uint8)~I2Sfour_RX_EN;
 186              		.loc 1 423 0
 187 0002 074A     		ldr	r2, .L19
 188 0004 1378     		ldrb	r3, [r2]	@ zero_extendqisi2
 189 0006 03F0FD03 		and	r3, r3, #253
 190 000a 1370     		strb	r3, [r2]
 424:Generated_Source\PSoC5/I2Sfour.c **** 
 425:Generated_Source\PSoC5/I2Sfour.c ****         enableInterrupts = CyEnterCriticalSection();
 191              		.loc 1 425 0
 192 000c FFF7FEFF 		bl	CyEnterCriticalSection
 193              	.LVL6:
 426:Generated_Source\PSoC5/I2Sfour.c ****         I2Sfour_RX_STS0_1_ACTL_REG &= (uint8)~I2Sfour_INT_EN;
 194              		.loc 1 426 0
 195 0010 044A     		ldr	r2, .L19+4
 196 0012 1378     		ldrb	r3, [r2]	@ zero_extendqisi2
 197 0014 03F0EF03 		and	r3, r3, #239
 198 0018 1370     		strb	r3, [r2]
 427:Generated_Source\PSoC5/I2Sfour.c ****         #ifdef I2Sfour_RX_STS2_3_ACTL_REG
 428:Generated_Source\PSoC5/I2Sfour.c ****             I2Sfour_RX_STS2_3_ACTL_REG &= (uint8)~I2Sfour_INT_EN;
 429:Generated_Source\PSoC5/I2Sfour.c ****         #endif /* I2Sfour_RX_STS2_3_ACTL_REG */
ARM GAS  C:\Users\tardi\AppData\Local\Temp\ccIoH0TW.s 			page 12


 430:Generated_Source\PSoC5/I2Sfour.c ****         #ifdef I2Sfour_RX_STS4_ACTL_REG
 431:Generated_Source\PSoC5/I2Sfour.c ****             I2Sfour_RX_STS4_ACTL_REG &= (uint8)~I2Sfour_INT_EN;
 432:Generated_Source\PSoC5/I2Sfour.c ****         #endif /* I2Sfour_RX_STS4_ACTL_REG */
 433:Generated_Source\PSoC5/I2Sfour.c ****         CyExitCriticalSection(enableInterrupts);
 199              		.loc 1 433 0
 200 001a FFF7FEFF 		bl	CyExitCriticalSection
 201              	.LVL7:
 202 001e 08BD     		pop	{r3, pc}
 203              	.L20:
 204              		.align	2
 205              	.L19:
 206 0020 77650040 		.word	1073767799
 207 0024 95650040 		.word	1073767829
 208              		.cfi_endproc
 209              	.LFE5:
 210              		.size	I2Sfour_DisableRx, .-I2Sfour_DisableRx
 211              		.section	.text.I2Sfour_ClearRxFIFO,"ax",%progbits
 212              		.align	2
 213              		.global	I2Sfour_ClearRxFIFO
 214              		.thumb
 215              		.thumb_func
 216              		.type	I2Sfour_ClearRxFIFO, %function
 217              	I2Sfour_ClearRxFIFO:
 218              	.LFB6:
 434:Generated_Source\PSoC5/I2Sfour.c ****     }
 435:Generated_Source\PSoC5/I2Sfour.c **** 
 436:Generated_Source\PSoC5/I2Sfour.c **** 
 437:Generated_Source\PSoC5/I2Sfour.c ****     /*******************************************************************************
 438:Generated_Source\PSoC5/I2Sfour.c ****     * Function Name: I2Sfour_ClearRxFIFO
 439:Generated_Source\PSoC5/I2Sfour.c ****     ********************************************************************************
 440:Generated_Source\PSoC5/I2Sfour.c ****     *
 441:Generated_Source\PSoC5/I2Sfour.c ****     * Summary:
 442:Generated_Source\PSoC5/I2Sfour.c ****     *  Clears out the Rx FIFO.  Any data present in the FIFO will be lost.
 443:Generated_Source\PSoC5/I2Sfour.c ****     *  This call should be made only when the Rx direction is disabled.
 444:Generated_Source\PSoC5/I2Sfour.c ****     *
 445:Generated_Source\PSoC5/I2Sfour.c ****     * Parameters:
 446:Generated_Source\PSoC5/I2Sfour.c ****     *  None.
 447:Generated_Source\PSoC5/I2Sfour.c ****     *
 448:Generated_Source\PSoC5/I2Sfour.c ****     * Return:
 449:Generated_Source\PSoC5/I2Sfour.c ****     *  None.
 450:Generated_Source\PSoC5/I2Sfour.c ****     *
 451:Generated_Source\PSoC5/I2Sfour.c ****     *******************************************************************************/
 452:Generated_Source\PSoC5/I2Sfour.c ****     void I2Sfour_ClearRxFIFO(void) 
 453:Generated_Source\PSoC5/I2Sfour.c ****     {
 219              		.loc 1 453 0
 220              		.cfi_startproc
 221              		@ args = 0, pretend = 0, frame = 0
 222              		@ frame_needed = 0, uses_anonymous_args = 0
 223 0000 08B5     		push	{r3, lr}
 224              		.cfi_def_cfa_offset 8
 225              		.cfi_offset 3, -8
 226              		.cfi_offset 14, -4
 454:Generated_Source\PSoC5/I2Sfour.c ****         uint8 enableInterrupts;
 455:Generated_Source\PSoC5/I2Sfour.c **** 
 456:Generated_Source\PSoC5/I2Sfour.c ****         enableInterrupts = CyEnterCriticalSection();
 227              		.loc 1 456 0
 228 0002 FFF7FEFF 		bl	CyEnterCriticalSection
ARM GAS  C:\Users\tardi\AppData\Local\Temp\ccIoH0TW.s 			page 13


 229              	.LVL8:
 457:Generated_Source\PSoC5/I2Sfour.c ****         I2Sfour_CLEAR_RX_FIFO(CH0);
 230              		.loc 1 457 0
 231 0006 064B     		ldr	r3, .L23
 232 0008 1A78     		ldrb	r2, [r3]	@ zero_extendqisi2
 233 000a 42F00302 		orr	r2, r2, #3
 234 000e 1A70     		strb	r2, [r3]
 235 0010 1A78     		ldrb	r2, [r3]	@ zero_extendqisi2
 236 0012 02F0FC02 		and	r2, r2, #252
 237 0016 1A70     		strb	r2, [r3]
 458:Generated_Source\PSoC5/I2Sfour.c ****         #if (I2Sfour_RX_STEREO_1_PRESENT)
 459:Generated_Source\PSoC5/I2Sfour.c ****             I2Sfour_CLEAR_RX_FIFO(CH1);
 460:Generated_Source\PSoC5/I2Sfour.c ****         #endif /* I2Sfour_RX_STEREO_1_PRESENT */
 461:Generated_Source\PSoC5/I2Sfour.c ****         #if (I2Sfour_RX_STEREO_2_PRESENT)
 462:Generated_Source\PSoC5/I2Sfour.c ****             I2Sfour_CLEAR_RX_FIFO(CH2);
 463:Generated_Source\PSoC5/I2Sfour.c ****         #endif /* I2Sfour_RX_STEREO_2_PRESENT */
 464:Generated_Source\PSoC5/I2Sfour.c ****         #if (I2Sfour_RX_STEREO_3_PRESENT)
 465:Generated_Source\PSoC5/I2Sfour.c ****             I2Sfour_CLEAR_RX_FIFO(CH3);
 466:Generated_Source\PSoC5/I2Sfour.c ****         #endif /* I2Sfour_RX_STEREO_3_PRESENT */
 467:Generated_Source\PSoC5/I2Sfour.c ****         #if (I2Sfour_RX_STEREO_4_PRESENT)
 468:Generated_Source\PSoC5/I2Sfour.c ****             I2Sfour_CLEAR_RX_FIFO(CH4);
 469:Generated_Source\PSoC5/I2Sfour.c ****         #endif /* I2Sfour_RX_STEREO_4_PRESENT */
 470:Generated_Source\PSoC5/I2Sfour.c ****         CyExitCriticalSection(enableInterrupts);
 238              		.loc 1 470 0
 239 0018 FFF7FEFF 		bl	CyExitCriticalSection
 240              	.LVL9:
 241 001c 08BD     		pop	{r3, pc}
 242              	.L24:
 243 001e 00BF     		.align	2
 244              	.L23:
 245 0020 97650040 		.word	1073767831
 246              		.cfi_endproc
 247              	.LFE6:
 248              		.size	I2Sfour_ClearRxFIFO, .-I2Sfour_ClearRxFIFO
 249              		.section	.text.I2Sfour_Stop,"ax",%progbits
 250              		.align	2
 251              		.global	I2Sfour_Stop
 252              		.thumb
 253              		.thumb_func
 254              		.type	I2Sfour_Stop, %function
 255              	I2Sfour_Stop:
 256              	.LFB3:
 186:Generated_Source\PSoC5/I2Sfour.c ****     uint8 enableInterrupts;
 257              		.loc 1 186 0
 258              		.cfi_startproc
 259              		@ args = 0, pretend = 0, frame = 0
 260              		@ frame_needed = 0, uses_anonymous_args = 0
 261 0000 08B5     		push	{r3, lr}
 262              		.cfi_def_cfa_offset 8
 263              		.cfi_offset 3, -8
 264              		.cfi_offset 14, -4
 189:Generated_Source\PSoC5/I2Sfour.c **** 
 265              		.loc 1 189 0
 266 0002 0B4A     		ldr	r2, .L27
 267 0004 1378     		ldrb	r3, [r2]	@ zero_extendqisi2
 268 0006 03F0FB03 		and	r3, r3, #251
 269 000a 1370     		strb	r3, [r2]
ARM GAS  C:\Users\tardi\AppData\Local\Temp\ccIoH0TW.s 			page 14


 191:Generated_Source\PSoC5/I2Sfour.c ****     I2Sfour_AUX_CONTROL_REG &= (uint8)~I2Sfour_CNT_START;
 270              		.loc 1 191 0
 271 000c FFF7FEFF 		bl	CyEnterCriticalSection
 272              	.LVL10:
 192:Generated_Source\PSoC5/I2Sfour.c ****     CyExitCriticalSection(enableInterrupts);
 273              		.loc 1 192 0
 274 0010 084A     		ldr	r2, .L27+4
 275 0012 1378     		ldrb	r3, [r2]	@ zero_extendqisi2
 276 0014 03F0DF03 		and	r3, r3, #223
 277 0018 1370     		strb	r3, [r2]
 193:Generated_Source\PSoC5/I2Sfour.c **** 
 278              		.loc 1 193 0
 279 001a FFF7FEFF 		bl	CyExitCriticalSection
 280              	.LVL11:
 196:Generated_Source\PSoC5/I2Sfour.c **** 
 281              		.loc 1 196 0
 282 001e 0022     		movs	r2, #0
 283 0020 054B     		ldr	r3, .L27+8
 284 0022 1A70     		strb	r2, [r3]
 204:Generated_Source\PSoC5/I2Sfour.c ****         I2Sfour_ClearRxFIFO();
 285              		.loc 1 204 0
 286 0024 FFF7FEFF 		bl	I2Sfour_DisableRx
 287              	.LVL12:
 205:Generated_Source\PSoC5/I2Sfour.c ****     #endif /* (I2Sfour_RX_DIRECTION_ENABLE) */
 288              		.loc 1 205 0
 289 0028 FFF7FEFF 		bl	I2Sfour_ClearRxFIFO
 290              	.LVL13:
 291 002c 08BD     		pop	{r3, pc}
 292              	.L28:
 293 002e 00BF     		.align	2
 294              	.L27:
 295 0030 77650040 		.word	1073767799
 296 0034 96650040 		.word	1073767830
 297 0038 76650040 		.word	1073767798
 298              		.cfi_endproc
 299              	.LFE3:
 300              		.size	I2Sfour_Stop, .-I2Sfour_Stop
 301              		.global	I2Sfour_initVar
 302              		.bss
 303              		.set	.LANCHOR0,. + 0
 304              		.type	I2Sfour_initVar, %object
 305              		.size	I2Sfour_initVar, 1
 306              	I2Sfour_initVar:
 307 0000 00       		.space	1
 308              		.text
 309              	.Letext0:
 310              		.file 2 "Generated_Source\\PSoC5\\cytypes.h"
 311              		.file 3 "Generated_Source\\PSoC5\\CyLib.h"