ARM GAS  C:\Users\tardi\AppData\Local\Temp\ccHaymnJ.s 			page 1


   1              		.syntax unified
   2              		.cpu cortex-m3
   3              		.fpu softvfp
   4              		.eabi_attribute 20, 1
   5              		.eabi_attribute 21, 1
   6              		.eabi_attribute 23, 3
   7              		.eabi_attribute 24, 1
   8              		.eabi_attribute 25, 1
   9              		.eabi_attribute 26, 1
  10              		.eabi_attribute 30, 1
  11              		.eabi_attribute 34, 1
  12              		.eabi_attribute 18, 4
  13              		.thumb
  14              		.syntax unified
  15              		.file	"main.c"
  16              		.text
  17              	.Ltext0:
  18              		.cfi_sections	.debug_frame
  19              		.section	.text.DmaI2S,"ax",%progbits
  20              		.align	2
  21              		.global	DmaI2S
  22              		.thumb
  23              		.thumb_func
  24              		.type	DmaI2S, %function
  25              	DmaI2S:
  26              	.LFB67:
  27              		.file 1 "main.c"
   1:main.c        **** /* ========================================
   2:main.c        ****  *
   3:main.c        ****  * Copyright YOUR COMPANY, THE YEAR
   4:main.c        ****  * All Rights Reserved
   5:main.c        ****  * UNPUBLISHED, LICENSED SOFTWARE.
   6:main.c        ****  *
   7:main.c        ****  * CONFIDENTIAL AND PROPRIETARY INFORMATION
   8:main.c        ****  * WHICH IS THE PROPERTY OF your company.
   9:main.c        ****  *
  10:main.c        ****  * ========================================
  11:main.c        **** */
  12:main.c        **** #include "project.h"
  13:main.c        **** #include <stdio.h>
  14:main.c        **** #include <stdlib.h>
  15:main.c        **** 
  16:main.c        **** 
  17:main.c        **** 
  18:main.c        **** // Find ud af hvordan bytes per burst og request per burst skal sættes
  19:main.c        **** #define DMA_BYTES_PER_BURST 1
  20:main.c        **** #define DMA_REQUEST_PER_BURST 1
  21:main.c        **** #define DMA_SRC_BASE (CYDEV_PERIPH_BASE)
  22:main.c        **** #define DMA_DST_BASE (CYDEV_SRAM_BASE)
  23:main.c        **** 
  24:main.c        **** // Assuming a buffer size of 1024 bytes for demonstration
  25:main.c        **** #define BUFFER_SIZE 1024
  26:main.c        **** 
  27:main.c        **** uint8_t soundBuffer_I2S[BUFFER_SIZE];
  28:main.c        **** 
  29:main.c        **** 
  30:main.c        **** // DMA Configuration Variables
ARM GAS  C:\Users\tardi\AppData\Local\Temp\ccHaymnJ.s 			page 2


  31:main.c        **** uint8 dmaChannel;
  32:main.c        **** uint8 dmaTd;
  33:main.c        **** 
  34:main.c        **** 
  35:main.c        **** volatile uint16 dmaIndex = 0;
  36:main.c        **** uint16 cpuIndex = 0;
  37:main.c        **** 
  38:main.c        **** void initComponents(void);
  39:main.c        **** void initDMA(void);
  40:main.c        **** 
  41:main.c        **** CY_ISR_PROTO(DmaI2S);
  42:main.c        **** 
  43:main.c        **** char hex_string[13];
  44:main.c        **** char newline[6] = "\r\n";
  45:main.c        **** 
  46:main.c        **** 
  47:main.c        **** 
  48:main.c        **** int main(void)
  49:main.c        **** {
  50:main.c        ****     CyGlobalIntEnable; /* Enable global interrupts. */
  51:main.c        **** 
  52:main.c        ****     /* Place your initialization/startup code here (e.g. MyInst_Start()) */
  53:main.c        **** 
  54:main.c        ****     initComponents();
  55:main.c        **** 
  56:main.c        ****     uint32_t* data = (uint32_t*)soundBuffer_I2S;
  57:main.c        ****     size_t num_values = BUFFER_SIZE / sizeof(uint32_t);
  58:main.c        ****     
  59:main.c        ****     for(;;)
  60:main.c        ****     {
  61:main.c        **** 
  62:main.c        ****             
  63:main.c        ****             if (dmaIndex > 0) {
  64:main.c        ****                 for (size_t i = 0; i < num_values; i++) {
  65:main.c        ****                     
  66:main.c        ****                 
  67:main.c        ****                     sprintf(hex_string, "%08X\r\n", data[i]);
  68:main.c        ****                     USBUART_PutString(hex_string);
  69:main.c        ****                     dmaIndex = 0;
  70:main.c        ****                 }
  71:main.c        ****             }
  72:main.c        ****             
  73:main.c        ****             //CyDelay(1000);
  74:main.c        ****             //sprintf(hex_string, "%08lX\r\n", dmaIndex);
  75:main.c        ****             //    USBUART_PutString(hex_string);
  76:main.c        ****             //   dmaIndex = 0;
  77:main.c        **** 
  78:main.c        ****     }
  79:main.c        **** 
  80:main.c        **** }
  81:main.c        **** 
  82:main.c        **** 
  83:main.c        **** void initComponents() {
  84:main.c        ****     /* Enable global interrupts. */
  85:main.c        ****     CyGlobalIntEnable;
  86:main.c        **** 
  87:main.c        **** 
ARM GAS  C:\Users\tardi\AppData\Local\Temp\ccHaymnJ.s 			page 3


  88:main.c        ****  
  89:main.c        ****     USBUART_Start(0, USBUART_5V_OPERATION);
  90:main.c        ****     
  91:main.c        ****     while(USBUART_GetConfiguration()==0){}
  92:main.c        ****     
  93:main.c        ****     /* Start PGA for 3v3 generation. */
  94:main.c        ****     I2S_3v3_Start();
  95:main.c        **** 
  96:main.c        ****     /* Start I2S */
  97:main.c        ****     I2S_Start();
  98:main.c        ****     I2S_EnableRx();
  99:main.c        ****     
 100:main.c        ****     initDMA();
 101:main.c        ****     
 102:main.c        ****     DmaI2S_StartEx(&DmaI2S);
 103:main.c        ****     
 104:main.c        **** 
 105:main.c        **** 
 106:main.c        **** }
 107:main.c        **** 
 108:main.c        **** 
 109:main.c        **** void initDMA(void) {
 110:main.c        ****     /* Step 1: DMA Initialization */
 111:main.c        ****     dmaChannel = I2S_DMA_DmaInitialize(DMA_BYTES_PER_BURST, DMA_REQUEST_PER_BURST, 
 112:main.c        ****                                    HI16(CYDEV_PERIPH_BASE), HI16(CYDEV_SRAM_BASE));
 113:main.c        ****     
 114:main.c        ****     /* Step 2: Allocate TD */
 115:main.c        ****     dmaTd = CyDmaTdAllocate();
 116:main.c        ****     
 117:main.c        ****     /* Step 3: Configure the TD */
 118:main.c        ****     CyDmaTdSetConfiguration(dmaTd, BUFFER_SIZE, dmaTd, 
 119:main.c        ****                             TD_INC_DST_ADR | I2S_DMA__TD_TERMOUT_EN);
 120:main.c        ****     
 121:main.c        ****     /* Step 4: Set the source and destination addresses */
 122:main.c        ****     CyDmaTdSetAddress(dmaTd, LO16((uint32)I2S_RX_CH0_F0_PTR), LO16((uint32)soundBuffer_I2S));
 123:main.c        ****     
 124:main.c        ****     /* Step 5: Set the initial TD for the channel */
 125:main.c        ****     CyDmaChSetInitialTd(dmaChannel, dmaTd);
 126:main.c        ****     
 127:main.c        ****     /* Step 6: Enable the DMA channel */
 128:main.c        ****     CyDmaChEnable(dmaChannel, 1);
 129:main.c        ****     
 130:main.c        ****     
 131:main.c        **** }
 132:main.c        **** 
 133:main.c        **** 
 134:main.c        **** 
 135:main.c        **** 
 136:main.c        **** CY_ISR(DmaI2S) {
  28              		.loc 1 136 0
  29              		.cfi_startproc
  30              		@ args = 0, pretend = 0, frame = 0
  31              		@ frame_needed = 0, uses_anonymous_args = 0
  32              		@ link register save eliminated.
 137:main.c        ****     dmaIndex += 1;
  33              		.loc 1 137 0
  34 0000 034A     		ldr	r2, .L2
ARM GAS  C:\Users\tardi\AppData\Local\Temp\ccHaymnJ.s 			page 4


  35 0002 1388     		ldrh	r3, [r2]
  36 0004 9BB2     		uxth	r3, r3
  37 0006 0133     		adds	r3, r3, #1
  38 0008 9BB2     		uxth	r3, r3
  39 000a 1380     		strh	r3, [r2]	@ movhi
  40 000c 7047     		bx	lr
  41              	.L3:
  42 000e 00BF     		.align	2
  43              	.L2:
  44 0010 00000000 		.word	.LANCHOR0
  45              		.cfi_endproc
  46              	.LFE67:
  47              		.size	DmaI2S, .-DmaI2S
  48              		.section	.text.initDMA,"ax",%progbits
  49              		.align	2
  50              		.global	initDMA
  51              		.thumb
  52              		.thumb_func
  53              		.type	initDMA, %function
  54              	initDMA:
  55              	.LFB66:
 109:main.c        ****     /* Step 1: DMA Initialization */
  56              		.loc 1 109 0
  57              		.cfi_startproc
  58              		@ args = 0, pretend = 0, frame = 0
  59              		@ frame_needed = 0, uses_anonymous_args = 0
  60 0000 38B5     		push	{r3, r4, r5, lr}
  61              		.cfi_def_cfa_offset 16
  62              		.cfi_offset 3, -16
  63              		.cfi_offset 4, -12
  64              		.cfi_offset 5, -8
  65              		.cfi_offset 14, -4
 111:main.c        ****                                    HI16(CYDEV_PERIPH_BASE), HI16(CYDEV_SRAM_BASE));
  66              		.loc 1 111 0
  67 0002 41F6FF73 		movw	r3, #8191
  68 0006 4FF48042 		mov	r2, #16384
  69 000a 0121     		movs	r1, #1
  70 000c 0846     		mov	r0, r1
  71 000e FFF7FEFF 		bl	I2S_DMA_DmaInitialize
  72              	.LVL0:
  73 0012 0E4C     		ldr	r4, .L6
  74 0014 2070     		strb	r0, [r4]
 115:main.c        ****     
  75              		.loc 1 115 0
  76 0016 FFF7FEFF 		bl	CyDmaTdAllocate
  77              	.LVL1:
  78 001a 0246     		mov	r2, r0
  79 001c 0C4D     		ldr	r5, .L6+4
  80 001e 2870     		strb	r0, [r5]
 118:main.c        ****                             TD_INC_DST_ADR | I2S_DMA__TD_TERMOUT_EN);
  81              		.loc 1 118 0
  82 0020 0623     		movs	r3, #6
  83 0022 4FF48061 		mov	r1, #1024
  84 0026 FFF7FEFF 		bl	CyDmaTdSetConfiguration
  85              	.LVL2:
 122:main.c        ****     
  86              		.loc 1 122 0
ARM GAS  C:\Users\tardi\AppData\Local\Temp\ccHaymnJ.s 			page 5


  87 002a 0A4A     		ldr	r2, .L6+8
  88 002c 92B2     		uxth	r2, r2
  89 002e 46F24441 		movw	r1, #25668
  90 0032 2878     		ldrb	r0, [r5]	@ zero_extendqisi2
  91 0034 FFF7FEFF 		bl	CyDmaTdSetAddress
  92              	.LVL3:
 125:main.c        ****     
  93              		.loc 1 125 0
  94 0038 2978     		ldrb	r1, [r5]	@ zero_extendqisi2
  95 003a 2078     		ldrb	r0, [r4]	@ zero_extendqisi2
  96 003c FFF7FEFF 		bl	CyDmaChSetInitialTd
  97              	.LVL4:
 128:main.c        ****     
  98              		.loc 1 128 0
  99 0040 0121     		movs	r1, #1
 100 0042 2078     		ldrb	r0, [r4]	@ zero_extendqisi2
 101 0044 FFF7FEFF 		bl	CyDmaChEnable
 102              	.LVL5:
 103 0048 38BD     		pop	{r3, r4, r5, pc}
 104              	.L7:
 105 004a 00BF     		.align	2
 106              	.L6:
 107 004c 00000000 		.word	dmaChannel
 108 0050 00000000 		.word	dmaTd
 109 0054 00000000 		.word	soundBuffer_I2S
 110              		.cfi_endproc
 111              	.LFE66:
 112              		.size	initDMA, .-initDMA
 113              		.section	.text.initComponents,"ax",%progbits
 114              		.align	2
 115              		.global	initComponents
 116              		.thumb
 117              		.thumb_func
 118              		.type	initComponents, %function
 119              	initComponents:
 120              	.LFB65:
  83:main.c        ****     /* Enable global interrupts. */
 121              		.loc 1 83 0
 122              		.cfi_startproc
 123              		@ args = 0, pretend = 0, frame = 0
 124              		@ frame_needed = 0, uses_anonymous_args = 0
 125 0000 08B5     		push	{r3, lr}
 126              		.cfi_def_cfa_offset 8
 127              		.cfi_offset 3, -8
 128              		.cfi_offset 14, -4
  85:main.c        **** 
 129              		.loc 1 85 0
 130              		.syntax unified
 131              	@ 85 "main.c" 1
 132 0002 62B6     		CPSIE   i
 133              	@ 0 "" 2
  89:main.c        ****     
 134              		.loc 1 89 0
 135              		.thumb
 136              		.syntax unified
 137 0004 0121     		movs	r1, #1
 138 0006 0020     		movs	r0, #0
ARM GAS  C:\Users\tardi\AppData\Local\Temp\ccHaymnJ.s 			page 6


 139 0008 FFF7FEFF 		bl	USBUART_Start
 140              	.LVL6:
 141              	.L9:
  91:main.c        ****     
 142              		.loc 1 91 0 discriminator 1
 143 000c FFF7FEFF 		bl	USBUART_GetConfiguration
 144              	.LVL7:
 145 0010 0028     		cmp	r0, #0
 146 0012 FBD0     		beq	.L9
  94:main.c        **** 
 147              		.loc 1 94 0
 148 0014 FFF7FEFF 		bl	I2S_3v3_Start
 149              	.LVL8:
  97:main.c        ****     I2S_EnableRx();
 150              		.loc 1 97 0
 151 0018 FFF7FEFF 		bl	I2S_Start
 152              	.LVL9:
  98:main.c        ****     
 153              		.loc 1 98 0
 154 001c FFF7FEFF 		bl	I2S_EnableRx
 155              	.LVL10:
 100:main.c        ****     
 156              		.loc 1 100 0
 157 0020 FFF7FEFF 		bl	initDMA
 158              	.LVL11:
 102:main.c        ****     
 159              		.loc 1 102 0
 160 0024 0148     		ldr	r0, .L11
 161 0026 FFF7FEFF 		bl	DmaI2S_StartEx
 162              	.LVL12:
 163 002a 08BD     		pop	{r3, pc}
 164              	.L12:
 165              		.align	2
 166              	.L11:
 167 002c 00000000 		.word	DmaI2S
 168              		.cfi_endproc
 169              	.LFE65:
 170              		.size	initComponents, .-initComponents
 171              		.section	.text.main,"ax",%progbits
 172              		.align	2
 173              		.global	main
 174              		.thumb
 175              		.thumb_func
 176              		.type	main, %function
 177              	main:
 178              	.LFB64:
  49:main.c        ****     CyGlobalIntEnable; /* Enable global interrupts. */
 179              		.loc 1 49 0
 180              		.cfi_startproc
 181              		@ args = 0, pretend = 0, frame = 0
 182              		@ frame_needed = 0, uses_anonymous_args = 0
 183 0000 38B5     		push	{r3, r4, r5, lr}
 184              		.cfi_def_cfa_offset 16
 185              		.cfi_offset 3, -16
 186              		.cfi_offset 4, -12
 187              		.cfi_offset 5, -8
 188              		.cfi_offset 14, -4
ARM GAS  C:\Users\tardi\AppData\Local\Temp\ccHaymnJ.s 			page 7


  50:main.c        **** 
 189              		.loc 1 50 0
 190              		.syntax unified
 191              	@ 50 "main.c" 1
 192 0002 62B6     		CPSIE   i
 193              	@ 0 "" 2
  54:main.c        **** 
 194              		.loc 1 54 0
 195              		.thumb
 196              		.syntax unified
 197 0004 FFF7FEFF 		bl	initComponents
 198              	.LVL13:
 199              	.L15:
  63:main.c        ****                 for (size_t i = 0; i < num_values; i++) {
 200              		.loc 1 63 0
 201 0008 0C4B     		ldr	r3, .L20
 202 000a 1B88     		ldrh	r3, [r3]
 203 000c 9BB2     		uxth	r3, r3
 204 000e 002B     		cmp	r3, #0
 205 0010 FAD0     		beq	.L15
 206 0012 0FE0     		b	.L18
 207              	.LVL14:
 208              	.L16:
 209              	.LBB2:
  67:main.c        ****                     USBUART_PutString(hex_string);
 210              		.loc 1 67 0 discriminator 3
 211 0014 0A4D     		ldr	r5, .L20+4
 212 0016 0B4B     		ldr	r3, .L20+8
 213 0018 53F82420 		ldr	r2, [r3, r4, lsl #2]
 214 001c 0A49     		ldr	r1, .L20+12
 215 001e 2846     		mov	r0, r5
 216 0020 FFF7FEFF 		bl	sprintf
 217              	.LVL15:
  68:main.c        ****                     dmaIndex = 0;
 218              		.loc 1 68 0 discriminator 3
 219 0024 2846     		mov	r0, r5
 220 0026 FFF7FEFF 		bl	USBUART_PutString
 221              	.LVL16:
  69:main.c        ****                 }
 222              		.loc 1 69 0 discriminator 3
 223 002a 0022     		movs	r2, #0
 224 002c 034B     		ldr	r3, .L20
 225 002e 1A80     		strh	r2, [r3]	@ movhi
  64:main.c        ****                     
 226              		.loc 1 64 0 discriminator 3
 227 0030 0134     		adds	r4, r4, #1
 228              	.LVL17:
 229 0032 00E0     		b	.L14
 230              	.LVL18:
 231              	.L18:
 232              	.LBE2:
 233 0034 0024     		movs	r4, #0
 234              	.L14:
 235              	.LVL19:
 236              	.LBB3:
  64:main.c        ****                     
 237              		.loc 1 64 0 is_stmt 0 discriminator 1
ARM GAS  C:\Users\tardi\AppData\Local\Temp\ccHaymnJ.s 			page 8


 238 0036 FF2C     		cmp	r4, #255
 239 0038 ECD9     		bls	.L16
 240 003a E5E7     		b	.L15
 241              	.L21:
 242              		.align	2
 243              	.L20:
 244 003c 00000000 		.word	.LANCHOR0
 245 0040 00000000 		.word	hex_string
 246 0044 00000000 		.word	soundBuffer_I2S
 247 0048 00000000 		.word	.LC0
 248              	.LBE3:
 249              		.cfi_endproc
 250              	.LFE64:
 251              		.size	main, .-main
 252              		.global	newline
 253              		.comm	hex_string,13,4
 254              		.global	cpuIndex
 255              		.global	dmaIndex
 256              		.comm	dmaTd,1,1
 257              		.comm	dmaChannel,1,1
 258              		.comm	soundBuffer_I2S,1024,4
 259              		.data
 260              		.align	2
 261              		.type	newline, %object
 262              		.size	newline, 6
 263              	newline:
 264 0000 0D0A00   		.ascii	"\015\012\000"
 265 0003 000000   		.space	3
 266              		.section	.rodata.str1.4,"aMS",%progbits,1
 267              		.align	2
 268              	.LC0:
 269 0000 25303858 		.ascii	"%08X\015\012\000"
 269      0D0A00
 270              		.bss
 271              		.align	1
 272              		.set	.LANCHOR0,. + 0
 273              		.type	dmaIndex, %object
 274              		.size	dmaIndex, 2
 275              	dmaIndex:
 276 0000 0000     		.space	2
 277              		.type	cpuIndex, %object
 278              		.size	cpuIndex, 2
 279              	cpuIndex:
 280 0002 0000     		.space	2
 281              		.text
 282              	.Letext0:
 283              		.file 2 "c:\\program files (x86)\\cypress\\psoc creator\\4.4\\psoc creator\\import\\gnu\\arm\\5.4.
 284              		.file 3 "c:\\program files (x86)\\cypress\\psoc creator\\4.4\\psoc creator\\import\\gnu\\arm\\5.4.
 285              		.file 4 "Generated_Source\\PSoC5/cytypes.h"
 286              		.file 5 "c:\\program files (x86)\\cypress\\psoc creator\\4.4\\psoc creator\\import\\gnu\\arm\\5.4.
 287              		.file 6 "Generated_Source\\PSoC5/core_cm3.h"
 288              		.file 7 "Generated_Source\\PSoC5/I2S_DMA_dma.h"
 289              		.file 8 "Generated_Source\\PSoC5/CYDMAC.H"
 290              		.file 9 "Generated_Source\\PSoC5/USBUART.h"
 291              		.file 10 "Generated_Source\\PSoC5/I2S_3v3.h"
 292              		.file 11 "Generated_Source\\PSoC5/I2S.h"
 293              		.file 12 "Generated_Source\\PSoC5/DmaI2S.h"
ARM GAS  C:\Users\tardi\AppData\Local\Temp\ccHaymnJ.s 			page 9


 294              		.file 13 "c:\\program files (x86)\\cypress\\psoc creator\\4.4\\psoc creator\\import\\gnu\\arm\\5.4
 295              		.file 14 "Generated_Source\\PSoC5/USBUART_cdc.h"